
C:/Users/Allan/Documents/t-rex/video.axf:     file format elf32-littlearm


Disassembly of section .text:

00000000 <__cs3_interrupt_vector>:
       0:	18 f0 9f e5 18 f0 9f e5 18 f0 9f e5 18 f0 9f e5     ................
      10:	18 f0 9f e5 18 f0 9f e5 18 f0 9f e5 18 f0 9f e5     ................
      20:	40 00 00 00 c8 9c 00 00 cc 9c 00 00 d0 9c 00 00     @...............
      30:	d4 9c 00 00 c4 9c 00 00 d8 9c 00 00 dc 9c 00 00     ................

00000040 <__cs3_reset>:
      40:	ea000026 	b	e0 <__cs3_start_asm_sim>

00000044 <__cs3_start_c>:
      44:	e59f608c 	ldr	r6, [pc, #140]	; d8 <__cs3_region_zero_size_ram+0x58>
      48:	e3560000 	cmp	r6, #0
      4c:	e92d4080 	push	{r7, lr}
      50:	e2466001 	sub	r6, r6, #1
      54:	0a00001e 	beq	d4 <__cs3_region_zero_size_ram+0x54>
      58:	e59f507c 	ldr	r5, [pc, #124]	; dc <__cs3_region_zero_size_ram+0x5c>
      5c:	e3a00000 	mov	r0, #0
      60:	e3a01000 	mov	r1, #0
      64:	e515200c 	ldr	r2, [r5, #-12]
      68:	e515e010 	ldr	lr, [r5, #-16]
      6c:	e5154008 	ldr	r4, [r5, #-8]
      70:	e15e0002 	cmp	lr, r2
      74:	00822004 	addeq	r2, r2, r4
      78:	0a000009 	beq	a4 <__cs3_region_zero_size_ram+0x24>
      7c:	e3540000 	cmp	r4, #0
      80:	0a000007 	beq	a4 <__cs3_region_zero_size_ram+0x24>
      84:	e1a07002 	mov	r7, r2
      88:	e1a0c002 	mov	r12, r2
      8c:	e8be000c 	ldm	lr!, {r2, r3}
      90:	e8ac000c 	stmia	r12!, {r2, r3}
      94:	e067300c 	rsb	r3, r7, r12
      98:	e1540003 	cmp	r4, r3
      9c:	e1a0200c 	mov	r2, r12
      a0:	1afffff9 	bne	8c <__cs3_region_zero_size_ram+0xc>
      a4:	e515e004 	ldr	lr, [r5, #-4]
      a8:	e35e0000 	cmp	lr, #0
      ac:	11a03002 	movne	r3, r2
      b0:	0a000003 	beq	c4 <__cs3_region_zero_size_ram+0x44>
      b4:	e8a30003 	stmia	r3!, {r0, r1}
      b8:	e062c003 	rsb	r12, r2, r3
      bc:	e15e000c 	cmp	lr, r12
      c0:	1afffffb 	bne	b4 <__cs3_region_zero_size_ram+0x34>
      c4:	e2466001 	sub	r6, r6, #1
      c8:	e3760001 	cmn	r6, #1
      cc:	e2855014 	add	r5, r5, #20
      d0:	1affffe3 	bne	64 <__cs3_start_c+0x20>
      d4:	eb0026c5 	bl	9bf0 <__cs3_premain>
      d8:	00000001 	.word	0x00000001
      dc:	0000a058 	.word	0x0000a058

000000e0 <__cs3_start_asm_sim>:
      e0:	e28f103c 	add	r1, pc, #60	; 0x3c
      e4:	e3a00016 	mov	r0, #22
      e8:	ef123456 	svc	0x00123456
      ec:	e3500000 	cmp	r0, #0
      f0:	ba000008 	blt	118 <__cs3_start_asm_sim+0x38>
      f4:	e59f2028 	ldr	r2, [pc, #40]	; 124 <__cs3_heap_start_ptr>
      f8:	e59fd01c 	ldr	sp, [pc, #28]	; 11c <__cs3_start_asm_sim+0x3c>
      fc:	e5920008 	ldr	r0, [r2, #8]
     100:	e3500000 	cmp	r0, #0
     104:	11a0d000 	movne	sp, r0
     108:	e59f1010 	ldr	r1, [pc, #16]	; 120 <__cs3_start_asm_sim+0x40>
     10c:	e5920004 	ldr	r0, [r2, #4]
     110:	e3500000 	cmp	r0, #0
     114:	15810000 	strne	r0, [r1]
     118:	eaffffc9 	b	44 <__cs3_start_c>
     11c:	3ffffff8 	.word	0x3ffffff8
     120:	0000aeac 	.word	0x0000aeac

00000124 <__cs3_heap_start_ptr>:
     124:	0000af38 	.word	0x0000af38

00000128 <_start>:
     128:	e51fd000 	ldr	sp, [pc, #-0]	; 130 <_start+0x8>
     12c:	eaffffc4 	b	44 <__cs3_start_c>
     130:	3ffffff8 	.word	0x3ffffff8

00000134 <deregister_tm_clones>:
     134:	e92d4008 	push	{r3, lr}
     138:	e59f002c 	ldr	r0, [pc, #44]	; 16c <deregister_tm_clones+0x38>
     13c:	e59f302c 	ldr	r3, [pc, #44]	; 170 <deregister_tm_clones+0x3c>
     140:	e0603003 	rsb	r3, r0, r3
     144:	e3530006 	cmp	r3, #6
     148:	8a000001 	bhi	154 <deregister_tm_clones+0x20>
     14c:	e8bd4008 	pop	{r3, lr}
     150:	e12fff1e 	bx	lr
     154:	e59f3018 	ldr	r3, [pc, #24]	; 174 <deregister_tm_clones+0x40>
     158:	e3530000 	cmp	r3, #0
     15c:	0afffffa 	beq	14c <deregister_tm_clones+0x18>
     160:	e1a0e00f 	mov	lr, pc
     164:	e12fff13 	bx	r3
     168:	eafffff7 	b	14c <deregister_tm_clones+0x18>
     16c:	0000aeb8 	.word	0x0000aeb8
     170:	0000aebb 	.word	0x0000aebb
     174:	00000000 	.word	0x00000000

00000178 <register_tm_clones>:
     178:	e92d4008 	push	{r3, lr}
     17c:	e59f0034 	ldr	r0, [pc, #52]	; 1b8 <register_tm_clones+0x40>
     180:	e59f3034 	ldr	r3, [pc, #52]	; 1bc <register_tm_clones+0x44>
     184:	e0603003 	rsb	r3, r0, r3
     188:	e1a03143 	asr	r3, r3, #2
     18c:	e0833fa3 	add	r3, r3, r3, lsr #31
     190:	e1b010c3 	asrs	r1, r3, #1
     194:	1a000001 	bne	1a0 <register_tm_clones+0x28>
     198:	e8bd4008 	pop	{r3, lr}
     19c:	e12fff1e 	bx	lr
     1a0:	e59f2018 	ldr	r2, [pc, #24]	; 1c0 <register_tm_clones+0x48>
     1a4:	e3520000 	cmp	r2, #0
     1a8:	0afffffa 	beq	198 <register_tm_clones+0x20>
     1ac:	e1a0e00f 	mov	lr, pc
     1b0:	e12fff12 	bx	r2
     1b4:	eafffff7 	b	198 <register_tm_clones+0x20>
     1b8:	0000aeb8 	.word	0x0000aeb8
     1bc:	0000aeb8 	.word	0x0000aeb8
     1c0:	00000000 	.word	0x00000000

000001c4 <__do_global_dtors_aux>:
     1c4:	e92d4010 	push	{r4, lr}
     1c8:	e59f402c 	ldr	r4, [pc, #44]	; 1fc <__do_global_dtors_aux+0x38>
     1cc:	e5d43000 	ldrb	r3, [r4]
     1d0:	e3530000 	cmp	r3, #0
     1d4:	1a000006 	bne	1f4 <__do_global_dtors_aux+0x30>
     1d8:	ebffffd5 	bl	134 <deregister_tm_clones>
     1dc:	e59f301c 	ldr	r3, [pc, #28]	; 200 <__do_global_dtors_aux+0x3c>
     1e0:	e3530000 	cmp	r3, #0
     1e4:	159f0018 	ldrne	r0, [pc, #24]	; 204 <__do_global_dtors_aux+0x40>
     1e8:	1320f000 	nopne	{0}
     1ec:	e3a03001 	mov	r3, #1
     1f0:	e5c43000 	strb	r3, [r4]
     1f4:	e8bd4010 	pop	{r4, lr}
     1f8:	e12fff1e 	bx	lr
     1fc:	0000aeb8 	.word	0x0000aeb8
     200:	00000000 	.word	0x00000000
     204:	00009d78 	.word	0x00009d78

00000208 <frame_dummy>:
     208:	e92d4008 	push	{r3, lr}
     20c:	e59f3034 	ldr	r3, [pc, #52]	; 248 <frame_dummy+0x40>
     210:	e3530000 	cmp	r3, #0
     214:	159f0030 	ldrne	r0, [pc, #48]	; 24c <frame_dummy+0x44>
     218:	159f1030 	ldrne	r1, [pc, #48]	; 250 <frame_dummy+0x48>
     21c:	1320f000 	nopne	{0}
     220:	e59f002c 	ldr	r0, [pc, #44]	; 254 <frame_dummy+0x4c>
     224:	e5903000 	ldr	r3, [r0]
     228:	e3530000 	cmp	r3, #0
     22c:	0a000003 	beq	240 <frame_dummy+0x38>
     230:	e59f3020 	ldr	r3, [pc, #32]	; 258 <frame_dummy+0x50>
     234:	e3530000 	cmp	r3, #0
     238:	11a0e00f 	movne	lr, pc
     23c:	112fff13 	bxne	r3
     240:	e8bd4008 	pop	{r3, lr}
     244:	eaffffcb 	b	178 <register_tm_clones>
     248:	00000000 	.word	0x00000000
     24c:	00009d78 	.word	0x00009d78
     250:	0000aebc 	.word	0x0000aebc
     254:	0000a058 	.word	0x0000a058
     258:	00000000 	.word	0x00000000

0000025c <check_collision>:
    video_box(0, ground_y, STANDARD_X - 1, ground_y + 1, color); // linha de 2 pixels
}

// Verifica colisão entre dois retângulos
int check_collision(int x1, int y1, int w1, int h1,
                    int x2, int y2, int w2, int h2) {
     25c:	e52d4004 	push	{r4}		; (str r4, [sp, #-4]!)
     260:	e59dc004 	ldr	r12, [sp, #4]
    if (x1 < x2 + w2 && x1 + w1 > x2 &&
     264:	e59d400c 	ldr	r4, [sp, #12]
     268:	e08c4004 	add	r4, r12, r4
     26c:	e1540000 	cmp	r4, r0
        y1 < y2 + h2 && y1 + h1 > y2) {
        return 1;
    }
    return 0;
     270:	d3a00000 	movle	r0, #0
}

// Verifica colisão entre dois retângulos
int check_collision(int x1, int y1, int w1, int h1,
                    int x2, int y2, int w2, int h2) {
    if (x1 < x2 + w2 && x1 + w1 > x2 &&
     274:	da00000f 	ble	2b8 <check_collision+0x5c>
     278:	e0800002 	add	r0, r0, r2
     27c:	e15c0000 	cmp	r12, r0
        y1 < y2 + h2 && y1 + h1 > y2) {
        return 1;
    }
    return 0;
     280:	a3a00000 	movge	r0, #0
}

// Verifica colisão entre dois retângulos
int check_collision(int x1, int y1, int w1, int h1,
                    int x2, int y2, int w2, int h2) {
    if (x1 < x2 + w2 && x1 + w1 > x2 &&
     284:	aa00000b 	bge	2b8 <check_collision+0x5c>
        y1 < y2 + h2 && y1 + h1 > y2) {
     288:	e59d2010 	ldr	r2, [sp, #16]
     28c:	e59d0008 	ldr	r0, [sp, #8]
     290:	e0802002 	add	r2, r0, r2
}

// Verifica colisão entre dois retângulos
int check_collision(int x1, int y1, int w1, int h1,
                    int x2, int y2, int w2, int h2) {
    if (x1 < x2 + w2 && x1 + w1 > x2 &&
     294:	e1520001 	cmp	r2, r1
        y1 < y2 + h2 && y1 + h1 > y2) {
        return 1;
    }
    return 0;
     298:	d3a00000 	movle	r0, #0
}

// Verifica colisão entre dois retângulos
int check_collision(int x1, int y1, int w1, int h1,
                    int x2, int y2, int w2, int h2) {
    if (x1 < x2 + w2 && x1 + w1 > x2 &&
     29c:	da000005 	ble	2b8 <check_collision+0x5c>
        y1 < y2 + h2 && y1 + h1 > y2) {
     2a0:	e0810003 	add	r0, r1, r3
     2a4:	e59d3008 	ldr	r3, [sp, #8]
     2a8:	e1530000 	cmp	r3, r0
     2ac:	a3a00000 	movge	r0, #0
     2b0:	b3a00001 	movlt	r0, #1
     2b4:	eaffffff 	b	2b8 <check_collision+0x5c>
        return 1;
    }
    return 0;
}
     2b8:	e8bd0010 	ldmfd	sp!, {r4}
     2bc:	e12fff1e 	bx	lr

000002c0 <video_text>:

void video_text(int x, int y, char *text_ptr) {
    int offset = (y << 7) + x;
     2c0:	e0801381 	add	r1, r0, r1, lsl #7
    volatile char *character_buffer = (char *)FPGA_CHAR_BASE;
    while (*text_ptr)
     2c4:	e5d23000 	ldrb	r3, [r2]
     2c8:	e3530000 	cmp	r3, #0
     2cc:	012fff1e 	bxeq	lr
     2d0:	e1a0c002 	mov	r12, r2
        return 1;
    }
    return 0;
}

void video_text(int x, int y, char *text_ptr) {
     2d4:	e0622001 	rsb	r2, r2, r1
     2d8:	e28224c9 	add	r2, r2, #-922746880	; 0xc9000000
    int offset = (y << 7) + x;
    volatile char *character_buffer = (char *)FPGA_CHAR_BASE;
    while (*text_ptr)
        *(character_buffer + offset++) = *text_ptr++;
     2dc:	e7c2300c 	strb	r3, [r2, r12]
}

void video_text(int x, int y, char *text_ptr) {
    int offset = (y << 7) + x;
    volatile char *character_buffer = (char *)FPGA_CHAR_BASE;
    while (*text_ptr)
     2e0:	e5fc3001 	ldrb	r3, [r12, #1]!
     2e4:	e3530000 	cmp	r3, #0
     2e8:	1afffffb 	bne	2dc <video_text+0x1c>
     2ec:	e12fff1e 	bx	lr

000002f0 <clear_text_screen>:
// Limpa a tela com a cor dada
void clear_screen(short color) {
    video_box(0, 0, STANDARD_X - 1, STANDARD_Y - 1, color);
}

void clear_text_screen(void) {
     2f0:	e92d4070 	push	{r4, r5, r6, lr}
    int row;
    for (row = 0; row < 30; row++)
     2f4:	e3a04000 	mov	r4, #0
        video_text(0, row, "                                                                                ");
     2f8:	e3095d88 	movw	r5, #40328	; 0x9d88
     2fc:	e3405000 	movt	r5, #0
     300:	e1a06004 	mov	r6, r4
     304:	e1a00006 	mov	r0, r6
     308:	e1a01004 	mov	r1, r4
     30c:	e1a02005 	mov	r2, r5
     310:	ebffffea 	bl	2c0 <video_text>
    video_box(0, 0, STANDARD_X - 1, STANDARD_Y - 1, color);
}

void clear_text_screen(void) {
    int row;
    for (row = 0; row < 30; row++)
     314:	e2844001 	add	r4, r4, #1
     318:	e354001e 	cmp	r4, #30
     31c:	1afffff8 	bne	304 <clear_text_screen+0x14>
        video_text(0, row, "                                                                                ");
}
     320:	e8bd8070 	pop	{r4, r5, r6, pc}

00000324 <video_box>:
    volatile char *character_buffer = (char *)FPGA_CHAR_BASE;
    while (*text_ptr)
        *(character_buffer + offset++) = *text_ptr++;
}

void video_box(int x1, int y1, int x2, int y2, short color) {
     324:	e92d4ff8 	push	{r3, r4, r5, r6, r7, r8, r9, r10, r11, lr}
     328:	e1a08001 	mov	r8, r1
     32c:	e1a04002 	mov	r4, r2
     330:	e1a09003 	mov	r9, r3
     334:	e1dd62f8 	ldrsh	r6, [sp, #40]	; 0x28
    int row, col;
    int pixel_buf_ptr = *(int *)PIXEL_BUF_CTRL_BASE;
     338:	e3033fff 	movw	r3, #16383	; 0x3fff
     33c:	e34f3f20 	movt	r3, #65312	; 0xff20
     340:	e5135fdf 	ldr	r5, [r3, #-4063]	; 0xfffff021
    int x_factor = 0x1 << (res_offset + col_offset);
     344:	e30aced4 	movw	r12, #44756	; 0xaed4
     348:	e340c000 	movt	r12, #0
     34c:	e59c3000 	ldr	r3, [r12]
     350:	e59cb004 	ldr	r11, [r12, #4]
     354:	e083b00b 	add	r11, r3, r11
     358:	e3a0a001 	mov	r10, #1
     35c:	e1a0bb1a 	lsl	r11, r10, r11
    int y_factor = 0x1 << res_offset;
     360:	e1a0a31a 	lsl	r10, r10, r3

    x1 /= x_factor; x2 /= x_factor;
     364:	e1a0100b 	mov	r1, r11
     368:	eb000265 	bl	d04 <__aeabi_idiv>
     36c:	e1a07000 	mov	r7, r0
     370:	e1a00004 	mov	r0, r4
     374:	e1a0100b 	mov	r1, r11
     378:	eb000261 	bl	d04 <__aeabi_idiv>
     37c:	e1a04000 	mov	r4, r0
    y1 /= y_factor; y2 /= y_factor;
     380:	e1a00008 	mov	r0, r8
     384:	e1a0100a 	mov	r1, r10
     388:	eb00025d 	bl	d04 <__aeabi_idiv>
     38c:	e1a08000 	mov	r8, r0
     390:	e1a00009 	mov	r0, r9
     394:	e1a0100a 	mov	r1, r10
     398:	eb000259 	bl	d04 <__aeabi_idiv>

    for (row = y1; row <= y2; row++) {
     39c:	e1580000 	cmp	r8, r0
     3a0:	c8bd8ff8 	popgt	{r3, r4, r5, r6, r7, r8, r9, r10, r11, pc}
     3a4:	ea00000d 	b	3e0 <video_box+0xbc>
        for (col = x1; col <= x2; col++) {
            int pixel_ptr = pixel_buf_ptr +
                            (row << (10 - res_offset - col_offset)) + (col << 1);
     3a8:	e592c000 	ldr	r12, [r2]
     3ac:	e26cc00a 	rsb	r12, r12, #10
     3b0:	e5921004 	ldr	r1, [r2, #4]
     3b4:	e061c00c 	rsb	r12, r1, r12
     3b8:	e1a01083 	lsl	r1, r3, #1
            *(short *)pixel_ptr = color;
     3bc:	e085cc18 	add	r12, r5, r8, lsl r12
     3c0:	e18c60b1 	strh	r6, [r12, r1]

    x1 /= x_factor; x2 /= x_factor;
    y1 /= y_factor; y2 /= y_factor;

    for (row = y1; row <= y2; row++) {
        for (col = x1; col <= x2; col++) {
     3c4:	e2833001 	add	r3, r3, #1
     3c8:	e1540003 	cmp	r4, r3
     3cc:	aafffff5 	bge	3a8 <video_box+0x84>
    int y_factor = 0x1 << res_offset;

    x1 /= x_factor; x2 /= x_factor;
    y1 /= y_factor; y2 /= y_factor;

    for (row = y1; row <= y2; row++) {
     3d0:	e2888001 	add	r8, r8, #1
     3d4:	e1500008 	cmp	r0, r8
     3d8:	aa000002 	bge	3e8 <video_box+0xc4>
     3dc:	e8bd8ff8 	pop	{r3, r4, r5, r6, r7, r8, r9, r10, r11, pc}
        for (col = x1; col <= x2; col++) {
            int pixel_ptr = pixel_buf_ptr +
                            (row << (10 - res_offset - col_offset)) + (col << 1);
     3e0:	e30a2ed4 	movw	r2, #44756	; 0xaed4
     3e4:	e3402000 	movt	r2, #0

    x1 /= x_factor; x2 /= x_factor;
    y1 /= y_factor; y2 /= y_factor;

    for (row = y1; row <= y2; row++) {
        for (col = x1; col <= x2; col++) {
     3e8:	e1570004 	cmp	r7, r4
     3ec:	d1a03007 	movle	r3, r7
     3f0:	daffffec 	ble	3a8 <video_box+0x84>
     3f4:	eafffff5 	b	3d0 <video_box+0xac>

000003f8 <draw_ground>:
            }
        }
    }
}

void draw_ground(short color) {
     3f8:	e52de004 	push	{lr}		; (str lr, [sp, #-4]!)
     3fc:	e24dd00c 	sub	sp, sp, #12
    int ground_y = 178 + (8 * SCALE); // y do chão
    video_box(0, ground_y, STANDARD_X - 1, ground_y + 1, color); // linha de 2 pixels
     400:	e58d0000 	str	r0, [sp]
     404:	e3a00000 	mov	r0, #0
     408:	e3a010ca 	mov	r1, #202	; 0xca
     40c:	e300213f 	movw	r2, #319	; 0x13f
     410:	e3a030cb 	mov	r3, #203	; 0xcb
     414:	ebffffc2 	bl	324 <video_box>
}
     418:	e28dd00c 	add	sp, sp, #12
     41c:	e8bd8000 	ldmfd	sp!, {pc}

00000420 <clear_screen>:
        }
    }
}

// Limpa a tela com a cor dada
void clear_screen(short color) {
     420:	e52de004 	push	{lr}		; (str lr, [sp, #-4]!)
     424:	e24dd00c 	sub	sp, sp, #12
    video_box(0, 0, STANDARD_X - 1, STANDARD_Y - 1, color);
     428:	e58d0000 	str	r0, [sp]
     42c:	e3a00000 	mov	r0, #0
     430:	e1a01000 	mov	r1, r0
     434:	e300213f 	movw	r2, #319	; 0x13f
     438:	e3a030ef 	mov	r3, #239	; 0xef
     43c:	ebffffb8 	bl	324 <video_box>
}
     440:	e28dd00c 	add	sp, sp, #12
     444:	e8bd8000 	ldmfd	sp!, {pc}

00000448 <resample_rgb>:
        }
    }
}

int resample_rgb(int bits, int color) {
    if (bits == 8) {
     448:	e3500008 	cmp	r0, #8
     44c:	1a000009 	bne	478 <resample_rgb+0x30>
        color = (((color >> 16) & 0xE0) |
                 ((color >> 11) & 0x1C) |
     450:	e1a005c1 	asr	r0, r1, #11
     454:	e200001c 	and	r0, r0, #28
    }
}

int resample_rgb(int bits, int color) {
    if (bits == 8) {
        color = (((color >> 16) & 0xE0) |
     458:	e1a03841 	asr	r3, r1, #16
     45c:	e20330e0 	and	r3, r3, #224	; 0xe0
     460:	e1800003 	orr	r0, r0, r3
                 ((color >> 11) & 0x1C) |
                 ((color >> 6)  & 0x03));
     464:	e7e11351 	ubfx	r1, r1, #6, #2
    }
}

int resample_rgb(int bits, int color) {
    if (bits == 8) {
        color = (((color >> 16) & 0xE0) |
     468:	e1800001 	orr	r0, r0, r1
                 ((color >> 11) & 0x1C) |
                 ((color >> 6)  & 0x03));
        return (short)((color << 8) | color);
     46c:	e1800400 	orr	r0, r0, r0, lsl #8
     470:	e6bf0070 	sxth	r0, r0
     474:	e12fff1e 	bx	lr
    } else if (bits == 16) {
     478:	e3500010 	cmp	r0, #16
     47c:	1a000009 	bne	4a8 <resample_rgb+0x60>
        return (short)((((color >> 8) & 0xF800) |
                        ((color >> 5) & 0x07E0) |
     480:	e1a002c1 	asr	r0, r1, #5
        color = (((color >> 16) & 0xE0) |
                 ((color >> 11) & 0x1C) |
                 ((color >> 6)  & 0x03));
        return (short)((color << 8) | color);
    } else if (bits == 16) {
        return (short)((((color >> 8) & 0xF800) |
     484:	e2000e7e 	and	r0, r0, #2016	; 0x7e0
     488:	e1a03441 	asr	r3, r1, #8
     48c:	e3c33e7f 	bic	r3, r3, #2032	; 0x7f0
     490:	e3c3300f 	bic	r3, r3, #15
     494:	e1800003 	orr	r0, r0, r3
     498:	e7e411d1 	ubfx	r1, r1, #3, #5
     49c:	e1800001 	orr	r0, r0, r1
     4a0:	e6bf0070 	sxth	r0, r0
     4a4:	e12fff1e 	bx	lr
                        ((color >> 5) & 0x07E0) |
                        ((color >> 3) & 0x001F)));
    }
    return (short)color;
     4a8:	e6bf0071 	sxth	r0, r1
}
     4ac:	e12fff1e 	bx	lr

000004b0 <get_data_bits>:

int get_data_bits(int mode) {
    switch (mode) {
     4b0:	e3500039 	cmp	r0, #57	; 0x39
     4b4:	979ff100 	ldrls	pc, [pc, r0, lsl #2]
     4b8:	ea000049 	b	5e4 <get_data_bits+0x134>
     4bc:	000005a4 	.word	0x000005a4
     4c0:	000005e4 	.word	0x000005e4
     4c4:	000005e4 	.word	0x000005e4
     4c8:	000005e4 	.word	0x000005e4
     4cc:	000005e4 	.word	0x000005e4
     4d0:	000005e4 	.word	0x000005e4
     4d4:	000005e4 	.word	0x000005e4
     4d8:	000005ec 	.word	0x000005ec
     4dc:	000005e4 	.word	0x000005e4
     4e0:	000005e4 	.word	0x000005e4
     4e4:	000005e4 	.word	0x000005e4
     4e8:	000005e4 	.word	0x000005e4
     4ec:	000005e4 	.word	0x000005e4
     4f0:	000005e4 	.word	0x000005e4
     4f4:	000005e4 	.word	0x000005e4
     4f8:	000005e4 	.word	0x000005e4
     4fc:	000005e4 	.word	0x000005e4
     500:	000005ec 	.word	0x000005ec
     504:	000005ac 	.word	0x000005ac
     508:	000005e4 	.word	0x000005e4
     50c:	000005b4 	.word	0x000005b4
     510:	000005e4 	.word	0x000005e4
     514:	000005e4 	.word	0x000005e4
     518:	000005bc 	.word	0x000005bc
     51c:	000005e4 	.word	0x000005e4
     520:	000005c4 	.word	0x000005c4
     524:	000005e4 	.word	0x000005e4
     528:	000005e4 	.word	0x000005e4
     52c:	000005e4 	.word	0x000005e4
     530:	000005e4 	.word	0x000005e4
     534:	000005e4 	.word	0x000005e4
     538:	000005e4 	.word	0x000005e4
     53c:	000005e4 	.word	0x000005e4
     540:	000005e4 	.word	0x000005e4
     544:	000005e4 	.word	0x000005e4
     548:	000005e4 	.word	0x000005e4
     54c:	000005e4 	.word	0x000005e4
     550:	000005e4 	.word	0x000005e4
     554:	000005e4 	.word	0x000005e4
     558:	000005e4 	.word	0x000005e4
     55c:	000005e4 	.word	0x000005e4
     560:	000005e4 	.word	0x000005e4
     564:	000005e4 	.word	0x000005e4
     568:	000005e4 	.word	0x000005e4
     56c:	000005e4 	.word	0x000005e4
     570:	000005e4 	.word	0x000005e4
     574:	000005e4 	.word	0x000005e4
     578:	000005e4 	.word	0x000005e4
     57c:	000005e4 	.word	0x000005e4
     580:	000005ec 	.word	0x000005ec
     584:	000005cc 	.word	0x000005cc
     588:	000005b4 	.word	0x000005b4
     58c:	000005e4 	.word	0x000005e4
     590:	000005e4 	.word	0x000005e4
     594:	000005e4 	.word	0x000005e4
     598:	000005d4 	.word	0x000005d4
     59c:	000005e4 	.word	0x000005e4
     5a0:	000005dc 	.word	0x000005dc
        case 0x0: return 1;
     5a4:	e3a00001 	mov	r0, #1
     5a8:	e12fff1e 	bx	lr
        case 0x7: case 0x11: case 0x31: return 8;
        case 0x12: return 9;
     5ac:	e3a00009 	mov	r0, #9
     5b0:	e12fff1e 	bx	lr
        case 0x14: case 0x33: return 16;
     5b4:	e3a00010 	mov	r0, #16
     5b8:	e12fff1e 	bx	lr
        case 0x17: return 24;
     5bc:	e3a00018 	mov	r0, #24
     5c0:	e12fff1e 	bx	lr
        case 0x19: return 30;
     5c4:	e3a0001e 	mov	r0, #30
     5c8:	e12fff1e 	bx	lr
        case 0x32: return 12;
     5cc:	e3a0000c 	mov	r0, #12
     5d0:	e12fff1e 	bx	lr
        case 0x37: return 32;
     5d4:	e3a00020 	mov	r0, #32
     5d8:	e12fff1e 	bx	lr
        case 0x39: return 40;
     5dc:	e3a00028 	mov	r0, #40	; 0x28
     5e0:	e12fff1e 	bx	lr
        default: return 16;
     5e4:	e3a00010 	mov	r0, #16
     5e8:	e12fff1e 	bx	lr
}

int get_data_bits(int mode) {
    switch (mode) {
        case 0x0: return 1;
        case 0x7: case 0x11: case 0x31: return 8;
     5ec:	e3a00008 	mov	r0, #8
        case 0x32: return 12;
        case 0x37: return 32;
        case 0x39: return 40;
        default: return 16;
    }
     5f0:	e12fff1e 	bx	lr

000005f4 <draw_sprite>:
    int row;
    for (row = 0; row < 30; row++)
        video_text(0, row, "                                                                                ");
}

void draw_sprite(int x, int y, int *sprite, int w, int h, int scale) {
     5f4:	e92d4ff0 	push	{r4, r5, r6, r7, r8, r9, r10, r11, lr}
     5f8:	e24dd03c 	sub	sp, sp, #60	; 0x3c
     5fc:	e58d0034 	str	r0, [sp, #52]	; 0x34
     600:	e1a04001 	mov	r4, r1
     604:	e1a05002 	mov	r5, r2
     608:	e58d301c 	str	r3, [sp, #28]
    int i, j, si, sj;
    int pixel_buf_ptr = *(int *)PIXEL_BUF_CTRL_BASE;
     60c:	e3032fff 	movw	r2, #16383	; 0x3fff
     610:	e34f2f20 	movt	r2, #65312	; 0xff20
     614:	e512bfdf 	ldr	r11, [r2, #-4063]	; 0xfffff021
    int pixel_ptr;
    int x_factor = 1 << (res_offset + col_offset);
     618:	e30a3ed4 	movw	r3, #44756	; 0xaed4
     61c:	e3403000 	movt	r3, #0
     620:	e5931000 	ldr	r1, [r3]
     624:	e5930004 	ldr	r0, [r3, #4]
     628:	e0810000 	add	r0, r1, r0
     62c:	e3a03001 	mov	r3, #1
     630:	e1a09013 	lsl	r9, r3, r0
    int y_factor = 1 << res_offset;
     634:	e1a03113 	lsl	r3, r3, r1
     638:	e58d300c 	str	r3, [sp, #12]
    short color = resample_rgb(get_data_bits(*(int *)(RGB_RESAMPLER_BASE) & 0x3F), WHITE);
     63c:	e5120fef 	ldr	r0, [r2, #-4079]	; 0xfffff011
     640:	e200003f 	and	r0, r0, #63	; 0x3f
     644:	ebffff99 	bl	4b0 <get_data_bits>
     648:	e3e014ff 	mvn	r1, #-16777216	; 0xff000000
     64c:	ebffff7d 	bl	448 <resample_rgb>
     650:	e6ffa070 	uxth	r10, r0

    for (i = 0; i < h; i++) {
     654:	e59d1060 	ldr	r1, [sp, #96]	; 0x60
     658:	e3510000 	cmp	r1, #0
     65c:	da000067 	ble	800 <draw_sprite+0x20c>
    int row;
    for (row = 0; row < 30; row++)
        video_text(0, row, "                                                                                ");
}

void draw_sprite(int x, int y, int *sprite, int w, int h, int scale) {
     660:	e59d201c 	ldr	r2, [sp, #28]
     664:	e0623f02 	rsb	r3, r2, r2, lsl #30
     668:	e1a03103 	lsl	r3, r3, #2
     66c:	e58d3028 	str	r3, [sp, #40]	; 0x28
     670:	e2413001 	sub	r3, r1, #1
     674:	e1a03103 	lsl	r3, r3, #2
     678:	e0030392 	mul	r3, r2, r3
     67c:	e0855003 	add	r5, r5, r3
     680:	e58d5020 	str	r5, [sp, #32]
     684:	e59d1064 	ldr	r1, [sp, #100]	; 0x64
     688:	e2611000 	rsb	r1, r1, #0
     68c:	e58d102c 	str	r1, [sp, #44]	; 0x2c
     690:	e58d4008 	str	r4, [sp, #8]
     694:	e59d1060 	ldr	r1, [sp, #96]	; 0x60
     698:	e1a02101 	lsl	r2, r1, #2
     69c:	e2622004 	rsb	r2, r2, #4
     6a0:	e59d101c 	ldr	r1, [sp, #28]
     6a4:	e0233291 	mla	r3, r1, r2, r3
     6a8:	e0833101 	add	r3, r3, r1, lsl #2
     6ac:	e58d3030 	str	r3, [sp, #48]	; 0x30
    int pixel_ptr;
    int x_factor = 1 << (res_offset + col_offset);
    int y_factor = 1 << res_offset;
    short color = resample_rgb(get_data_bits(*(int *)(RGB_RESAMPLER_BASE) & 0x3F), WHITE);

    for (i = 0; i < h; i++) {
     6b0:	e3a02000 	mov	r2, #0
     6b4:	e58d2024 	str	r2, [sp, #36]	; 0x24
                    for (sj = 0; sj < scale; sj++) {
                        int px = x + (j * scale) + sj;
                        int py = y - (i * scale) - si; // <== MUDA O SINAL PARA CIMA
                        px = px / x_factor;
                        py = py / y_factor;
                        pixel_ptr = pixel_buf_ptr + (py << (10 - res_offset - col_offset)) + (px << 1);
     6b8:	e30a5ed4 	movw	r5, #44756	; 0xaed4
     6bc:	e3405000 	movt	r5, #0
     6c0:	ea000040 	b	7c8 <draw_sprite+0x1d4>
    int y_factor = 1 << res_offset;
    short color = resample_rgb(get_data_bits(*(int *)(RGB_RESAMPLER_BASE) & 0x3F), WHITE);

    for (i = 0; i < h; i++) {
        for (j = 0; j < w; j++) {
            if (sprite[(h - 1 - i) * w + j]) {  // <== INVERTE A LINHA
     6c4:	e59d1010 	ldr	r1, [sp, #16]
     6c8:	e4913004 	ldr	r3, [r1], #4
     6cc:	e58d1010 	str	r1, [sp, #16]
     6d0:	e3530000 	cmp	r3, #0
     6d4:	0a000024 	beq	76c <draw_sprite+0x178>
                for (si = 0; si < scale; si++) {
     6d8:	e59d2064 	ldr	r2, [sp, #100]	; 0x64
     6dc:	e3520000 	cmp	r2, #0
     6e0:	ca000014 	bgt	738 <draw_sprite+0x144>
     6e4:	ea000020 	b	76c <draw_sprite+0x178>
                    for (sj = 0; sj < scale; sj++) {
                        int px = x + (j * scale) + sj;
                        int py = y - (i * scale) - si; // <== MUDA O SINAL PARA CIMA
                        px = px / x_factor;
                        py = py / y_factor;
                        pixel_ptr = pixel_buf_ptr + (py << (10 - res_offset - col_offset)) + (px << 1);
     6e8:	e5956000 	ldr	r6, [r5]
     6ec:	e266600a 	rsb	r6, r6, #10
     6f0:	e5953004 	ldr	r3, [r5, #4]
     6f4:	e0636006 	rsb	r6, r3, r6
     6f8:	e1a06617 	lsl	r6, r7, r6
            if (sprite[(h - 1 - i) * w + j]) {  // <== INVERTE A LINHA
                for (si = 0; si < scale; si++) {
                    for (sj = 0; sj < scale; sj++) {
                        int px = x + (j * scale) + sj;
                        int py = y - (i * scale) - si; // <== MUDA O SINAL PARA CIMA
                        px = px / x_factor;
     6fc:	e1a00004 	mov	r0, r4
     700:	e1a01009 	mov	r1, r9
     704:	eb00017e 	bl	d04 <__aeabi_idiv>
                        py = py / y_factor;
                        pixel_ptr = pixel_buf_ptr + (py << (10 - res_offset - col_offset)) + (px << 1);
                        *(short *)pixel_ptr = color;
     708:	e08b0080 	add	r0, r11, r0, lsl #1
     70c:	e180a0b6 	strh	r10, [r0, r6]
     710:	e2844001 	add	r4, r4, #1

    for (i = 0; i < h; i++) {
        for (j = 0; j < w; j++) {
            if (sprite[(h - 1 - i) * w + j]) {  // <== INVERTE A LINHA
                for (si = 0; si < scale; si++) {
                    for (sj = 0; sj < scale; sj++) {
     714:	e1540008 	cmp	r4, r8
     718:	1afffff2 	bne	6e8 <draw_sprite+0xf4>
    short color = resample_rgb(get_data_bits(*(int *)(RGB_RESAMPLER_BASE) & 0x3F), WHITE);

    for (i = 0; i < h; i++) {
        for (j = 0; j < w; j++) {
            if (sprite[(h - 1 - i) * w + j]) {  // <== INVERTE A LINHA
                for (si = 0; si < scale; si++) {
     71c:	e59d3000 	ldr	r3, [sp]
     720:	e2833001 	add	r3, r3, #1
     724:	e58d3000 	str	r3, [sp]
     728:	e59d1064 	ldr	r1, [sp, #100]	; 0x64
     72c:	e1530001 	cmp	r3, r1
     730:	1a000005 	bne	74c <draw_sprite+0x158>
     734:	ea00000c 	b	76c <draw_sprite+0x178>
     738:	e3a02000 	mov	r2, #0
     73c:	e58d2000 	str	r2, [sp]
    int row;
    for (row = 0; row < 30; row++)
        video_text(0, row, "                                                                                ");
}

void draw_sprite(int x, int y, int *sprite, int w, int h, int scale) {
     740:	e59d3004 	ldr	r3, [sp, #4]
     744:	e59d1014 	ldr	r1, [sp, #20]
     748:	e0838001 	add	r8, r3, r1
                for (si = 0; si < scale; si++) {
                    for (sj = 0; sj < scale; sj++) {
                        int px = x + (j * scale) + sj;
                        int py = y - (i * scale) - si; // <== MUDA O SINAL PARA CIMA
                        px = px / x_factor;
                        py = py / y_factor;
     74c:	e59d2008 	ldr	r2, [sp, #8]
     750:	e59d3000 	ldr	r3, [sp]
     754:	e0630002 	rsb	r0, r3, r2
     758:	e59d100c 	ldr	r1, [sp, #12]
     75c:	eb000168 	bl	d04 <__aeabi_idiv>
     760:	e1a07000 	mov	r7, r0
    int row;
    for (row = 0; row < 30; row++)
        video_text(0, row, "                                                                                ");
}

void draw_sprite(int x, int y, int *sprite, int w, int h, int scale) {
     764:	e59d4004 	ldr	r4, [sp, #4]
     768:	eaffffde 	b	6e8 <draw_sprite+0xf4>
     76c:	e59d1004 	ldr	r1, [sp, #4]
     770:	e59d2014 	ldr	r2, [sp, #20]
     774:	e0811002 	add	r1, r1, r2
     778:	e58d1004 	str	r1, [sp, #4]
    int x_factor = 1 << (res_offset + col_offset);
    int y_factor = 1 << res_offset;
    short color = resample_rgb(get_data_bits(*(int *)(RGB_RESAMPLER_BASE) & 0x3F), WHITE);

    for (i = 0; i < h; i++) {
        for (j = 0; j < w; j++) {
     77c:	e59d3010 	ldr	r3, [sp, #16]
     780:	e59d1018 	ldr	r1, [sp, #24]
     784:	e1530001 	cmp	r3, r1
     788:	1affffcd 	bne	6c4 <draw_sprite+0xd0>
    int pixel_ptr;
    int x_factor = 1 << (res_offset + col_offset);
    int y_factor = 1 << res_offset;
    short color = resample_rgb(get_data_bits(*(int *)(RGB_RESAMPLER_BASE) & 0x3F), WHITE);

    for (i = 0; i < h; i++) {
     78c:	e59d2024 	ldr	r2, [sp, #36]	; 0x24
     790:	e2822001 	add	r2, r2, #1
     794:	e58d2024 	str	r2, [sp, #36]	; 0x24
     798:	e59d3020 	ldr	r3, [sp, #32]
     79c:	e59d1028 	ldr	r1, [sp, #40]	; 0x28
     7a0:	e0833001 	add	r3, r3, r1
     7a4:	e58d3020 	str	r3, [sp, #32]
     7a8:	e59d2008 	ldr	r2, [sp, #8]
     7ac:	e59d302c 	ldr	r3, [sp, #44]	; 0x2c
     7b0:	e0822003 	add	r2, r2, r3
     7b4:	e58d2008 	str	r2, [sp, #8]
     7b8:	e59d1024 	ldr	r1, [sp, #36]	; 0x24
     7bc:	e59d2060 	ldr	r2, [sp, #96]	; 0x60
     7c0:	e1510002 	cmp	r1, r2
     7c4:	0a00000d 	beq	800 <draw_sprite+0x20c>
        for (j = 0; j < w; j++) {
     7c8:	e59d301c 	ldr	r3, [sp, #28]
     7cc:	e3530000 	cmp	r3, #0
     7d0:	daffffed 	ble	78c <draw_sprite+0x198>
    int row;
    for (row = 0; row < 30; row++)
        video_text(0, row, "                                                                                ");
}

void draw_sprite(int x, int y, int *sprite, int w, int h, int scale) {
     7d4:	e59d1064 	ldr	r1, [sp, #100]	; 0x64
     7d8:	e58d1014 	str	r1, [sp, #20]
     7dc:	e59d2034 	ldr	r2, [sp, #52]	; 0x34
     7e0:	e58d2004 	str	r2, [sp, #4]
     7e4:	e59d3020 	ldr	r3, [sp, #32]
     7e8:	e59d1030 	ldr	r1, [sp, #48]	; 0x30
     7ec:	e0833001 	add	r3, r3, r1
     7f0:	e58d3018 	str	r3, [sp, #24]
     7f4:	e59d2020 	ldr	r2, [sp, #32]
     7f8:	e58d2010 	str	r2, [sp, #16]
     7fc:	eaffffb0 	b	6c4 <draw_sprite+0xd0>
                    }
                }
            }
        }
    }
}
     800:	e28dd03c 	add	sp, sp, #60	; 0x3c
     804:	e8bd8ff0 	pop	{r4, r5, r6, r7, r8, r9, r10, r11, pc}

00000808 <main>:
int bird_timer = 0;
int bird_active = 0;
int bird_direction = 0; // 0 = left, 1 = right
int *current_bird_sprite = bird_left;

int main() {
     808:	e92d4ff0 	push	{r4, r5, r6, r7, r8, r9, r10, r11, lr}
     80c:	e24dd074 	sub	sp, sp, #116	; 0x74
    volatile int *video_resolution = (int *)(PIXEL_BUF_CTRL_BASE + 0x8);
    screen_x = *video_resolution & 0xFFFF;
     810:	e3033fff 	movw	r3, #16383	; 0x3fff
     814:	e34f3f20 	movt	r3, #65312	; 0xff20
     818:	e5136fd7 	ldr	r6, [r3, #-4055]	; 0xfffff029
     81c:	e6ff6076 	uxth	r6, r6
     820:	e30a4ed4 	movw	r4, #44756	; 0xaed4
     824:	e3404000 	movt	r4, #0
     828:	e5846008 	str	r6, [r4, #8]
    screen_y = (*video_resolution >> 16) & 0xFFFF;
     82c:	e5132fd7 	ldr	r2, [r3, #-4055]	; 0xfffff029
     830:	e1a02822 	lsr	r2, r2, #16
     834:	e584200c 	str	r2, [r4, #12]

    volatile int *rgb_status = (int *)(RGB_RESAMPLER_BASE);
    int db = get_data_bits(*rgb_status & 0x3F);
     838:	e5130fef 	ldr	r0, [r3, #-4079]	; 0xfffff011
     83c:	e200003f 	and	r0, r0, #63	; 0x3f
     840:	ebffff1a 	bl	4b0 <get_data_bits>
     844:	e1a05000 	mov	r5, r0
    res_offset = (screen_x == 160) ? 1 : 0;
     848:	e35600a0 	cmp	r6, #160	; 0xa0
     84c:	13a06000 	movne	r6, #0
     850:	03a06001 	moveq	r6, #1
     854:	e5846000 	str	r6, [r4]
    col_offset = (db == 8) ? 1 : 0;
     858:	e3500008 	cmp	r0, #8
     85c:	13a03000 	movne	r3, #0
     860:	03a03001 	moveq	r3, #1
     864:	e5843004 	str	r3, [r4, #4]

    short black = resample_rgb(db, BLACK);
     868:	e3a01000 	mov	r1, #0
     86c:	ebfffef5 	bl	448 <resample_rgb>
     870:	e6ff0070 	uxth	r0, r0
     874:	e58d0014 	str	r0, [sp, #20]
    short white = resample_rgb(db, WHITE);
     878:	e1a00005 	mov	r0, r5
     87c:	e3e014ff 	mvn	r1, #-16777216	; 0xff000000
     880:	ebfffef0 	bl	448 <resample_rgb>
     884:	e6ff0070 	uxth	r0, r0
     888:	e58d0038 	str	r0, [sp, #56]	; 0x38
    short green = resample_rgb(db, GREEN);

    clear_screen(black);
     88c:	e59d2014 	ldr	r2, [sp, #20]
     890:	e6bf0072 	sxth	r0, r2
     894:	ebfffee1 	bl	420 <clear_screen>
    clear_text_screen();
     898:	ebfffe94 	bl	2f0 <clear_text_screen>
    int bird_direction = 0; // 0 = left, 1 = right
    int *current_bird_sprite = bird_left;

    volatile int *key_ptr = (int *)KEY_BASE;

    draw_ground(white);
     89c:	e59d3038 	ldr	r3, [sp, #56]	; 0x38
     8a0:	e6bf0073 	sxth	r0, r3
     8a4:	ebfffed3 	bl	3f8 <draw_ground>
    int bird_w = 8 * SCALE;
    int bird_h = 8 * SCALE;
    int bird_timer = 0;
    int bird_active = 0;
    int bird_direction = 0; // 0 = left, 1 = right
    int *current_bird_sprite = bird_left;
     8a8:	e30a2060 	movw	r2, #41056	; 0xa060
     8ac:	e3402000 	movt	r2, #0
     8b0:	e58d2028 	str	r2, [sp, #40]	; 0x28
    int bird_x = -100;
    int bird_y = 150;
    int bird_w = 8 * SCALE;
    int bird_h = 8 * SCALE;
    int bird_timer = 0;
    int bird_active = 0;
     8b4:	e3a07000 	mov	r7, #0
    // Passarinho
    int bird_x = -100;
    int bird_y = 150;
    int bird_w = 8 * SCALE;
    int bird_h = 8 * SCALE;
    int bird_timer = 0;
     8b8:	e1a09007 	mov	r9, r7
    int state = 0;
    int *current_sprite = right;
    int frame_counter = 0;

    // Passarinho
    int bird_x = -100;
     8bc:	e3e03063 	mvn	r3, #99	; 0x63
     8c0:	e58d301c 	str	r3, [sp, #28]
    int ground = 200;

    int score = 0;
    int state = 0;
    int *current_sprite = right;
    int frame_counter = 0;
     8c4:	e1a0b007 	mov	r11, r7
    int gravity = 1;
    int ground = 200;

    int score = 0;
    int state = 0;
    int *current_sprite = right;
     8c8:	e2822c01 	add	r2, r2, #256	; 0x100
     8cc:	e58d202c 	str	r2, [sp, #44]	; 0x2c
    int jump = 0, velocity = 0;
    int gravity = 1;
    int ground = 200;

    int score = 0;
    int state = 0;
     8d0:	e1a04007 	mov	r4, r7

    int jump = 0, velocity = 0;
    int gravity = 1;
    int ground = 200;

    int score = 0;
     8d4:	e1a0a007 	mov	r10, r7
    int cactus_x = 320;
    int cactus_y = 200;
    int cactus_w = 5 * SCALE;
    int cactus_h = 6 * SCALE;

    int jump = 0, velocity = 0;
     8d8:	e58d7020 	str	r7, [sp, #32]
     8dc:	e58d7024 	str	r7, [sp, #36]	; 0x24
    int trex_x = 30;
    int trex_y = 200;
    int trex_w = 8 * SCALE;
    int trex_h = 12 * SCALE;

    int cactus_x = 320;
     8e0:	e3a06d05 	mov	r6, #320	; 0x140

    clear_screen(black);
    clear_text_screen();

    int trex_x = 30;
    int trex_y = 200;
     8e4:	e3a080c8 	mov	r8, #200	; 0xc8
        int keys = *key_ptr;

        if (state == 0) {
            clear_screen(black);
            clear_text_screen();
            video_text(30, 15, "PRESSIONE KEY2");
     8e8:	e3093ddc 	movw	r3, #40412	; 0x9ddc
     8ec:	e3403000 	movt	r3, #0
     8f0:	e58d3030 	str	r3, [sp, #48]	; 0x30
            video_text(27, 18, "PARA INICIAR O JOGO");
     8f4:	e3092dec 	movw	r2, #40428	; 0x9dec
     8f8:	e3402000 	movt	r2, #0
     8fc:	e58d2034 	str	r2, [sp, #52]	; 0x34
                // reset passarinho
                bird_x = -100;
                bird_timer = 0;
                bird_active = 0;
                bird_direction = 0;
                current_bird_sprite = bird_left;
     900:	e30a3060 	movw	r3, #41056	; 0xa060
     904:	e3403000 	movt	r3, #0
     908:	e58d3018 	str	r3, [sp, #24]
            for (d = 0; d < 70000; d++);
        }
        else if (state == 2) {
            clear_screen(black);
            clear_text_screen();
            video_text(34, 14, "GAME OVER");
     90c:	e3092e0c 	movw	r2, #40460	; 0x9e0c
     910:	e3402000 	movt	r2, #0
     914:	e58d2040 	str	r2, [sp, #64]	; 0x40

            // Desenho
            clear_screen(black);
            clear_text_screen();
            draw_sprite(trex_x, trex_y, current_sprite, 8, 12, SCALE);
            draw_sprite(cactus_x, cactus_y, cactus_sprite, 5, 6, SCALE);
     918:	e2833c05 	add	r3, r3, #1280	; 0x500
     91c:	e58d303c 	str	r3, [sp, #60]	; 0x3c
                current_bird_sprite = (current_bird_sprite == bird_left) ? bird_right : bird_left;
            }

            // Passarinho
            bird_timer++;
            if (!bird_active && bird_timer > 100 && (rand() % 100) < 5) {
     920:	e308251f 	movw	r2, #34079	; 0x851f
     924:	e34521eb 	movt	r2, #20971	; 0x51eb
     928:	e58d2044 	str	r2, [sp, #68]	; 0x44
     92c:	ea00000b 	b	960 <main+0x158>
                // reset passarinho
                bird_x = -100;
                bird_timer = 0;
                bird_active = 0;
                bird_direction = 0;
                current_bird_sprite = bird_left;
     930:	e59d3018 	ldr	r3, [sp, #24]
     934:	e58d3028 	str	r3, [sp, #40]	; 0x28
                score = 0;

                // reset passarinho
                bird_x = -100;
                bird_timer = 0;
                bird_active = 0;
     938:	e3a07000 	mov	r7, #0
                velocity = 0;
                score = 0;

                // reset passarinho
                bird_x = -100;
                bird_timer = 0;
     93c:	e1a09007 	mov	r9, r7
                jump = 0;
                velocity = 0;
                score = 0;

                // reset passarinho
                bird_x = -100;
     940:	e3e02063 	mvn	r2, #99	; 0x63
     944:	e58d201c 	str	r2, [sp, #28]
            clear_text_screen();
            video_text(30, 15, "PRESSIONE KEY2");
            video_text(27, 18, "PARA INICIAR O JOGO");

            if (keys & 0x2) {
                state = 1;
     948:	e3a04001 	mov	r4, #1
                trex_y = ground;
                cactus_x = 320;
                jump = 0;
                velocity = 0;
                score = 0;
     94c:	e1a0a007 	mov	r10, r7
            if (keys & 0x2) {
                state = 1;
                trex_y = ground;
                cactus_x = 320;
                jump = 0;
                velocity = 0;
     950:	e58d7020 	str	r7, [sp, #32]

            if (keys & 0x2) {
                state = 1;
                trex_y = ground;
                cactus_x = 320;
                jump = 0;
     954:	e58d7024 	str	r7, [sp, #36]	; 0x24
            video_text(27, 18, "PARA INICIAR O JOGO");

            if (keys & 0x2) {
                state = 1;
                trex_y = ground;
                cactus_x = 320;
     958:	e3a06d05 	mov	r6, #320	; 0x140
            video_text(30, 15, "PRESSIONE KEY2");
            video_text(27, 18, "PARA INICIAR O JOGO");

            if (keys & 0x2) {
                state = 1;
                trex_y = ground;
     95c:	e3a080c8 	mov	r8, #200	; 0xc8
    volatile int *key_ptr = (int *)KEY_BASE;

    draw_ground(white);

    while (1) {
        int keys = *key_ptr;
     960:	e3a03000 	mov	r3, #0
     964:	e34f3f20 	movt	r3, #65312	; 0xff20
     968:	e5935050 	ldr	r5, [r3, #80]	; 0x50

        if (state == 0) {
     96c:	e3540000 	cmp	r4, #0
     970:	1a00000e 	bne	9b0 <main+0x1a8>
            clear_screen(black);
     974:	e59d3014 	ldr	r3, [sp, #20]
     978:	e6bf0073 	sxth	r0, r3
     97c:	ebfffea7 	bl	420 <clear_screen>
            clear_text_screen();
     980:	ebfffe5a 	bl	2f0 <clear_text_screen>
            video_text(30, 15, "PRESSIONE KEY2");
     984:	e3a0001e 	mov	r0, #30
     988:	e3a0100f 	mov	r1, #15
     98c:	e59d2030 	ldr	r2, [sp, #48]	; 0x30
     990:	ebfffe4a 	bl	2c0 <video_text>
            video_text(27, 18, "PARA INICIAR O JOGO");
     994:	e3a0001b 	mov	r0, #27
     998:	e3a01012 	mov	r1, #18
     99c:	e59d2034 	ldr	r2, [sp, #52]	; 0x34
     9a0:	ebfffe46 	bl	2c0 <video_text>

            if (keys & 0x2) {
     9a4:	e3150002 	tst	r5, #2
     9a8:	1affffe0 	bne	930 <main+0x128>
     9ac:	eaffffeb 	b	960 <main+0x158>
                bird_active = 0;
                bird_direction = 0;
                current_bird_sprite = bird_left;
            }
        }
        else if (state == 1) {
     9b0:	e3540001 	cmp	r4, #1
     9b4:	1a00009b 	bne	c28 <main+0x420>
            score += 1;
     9b8:	e28aa001 	add	r10, r10, #1

            if ((keys & 0x2) && jump == 0) {
     9bc:	e3150002 	tst	r5, #2
     9c0:	0a000003 	beq	9d4 <main+0x1cc>
     9c4:	e59d2024 	ldr	r2, [sp, #36]	; 0x24
     9c8:	e3520000 	cmp	r2, #0
     9cc:	0a0000b1 	beq	c98 <main+0x490>
     9d0:	ea000002 	b	9e0 <main+0x1d8>
                jump = 1;
                velocity = -10;
            }

            if (jump) {
     9d4:	e59d3024 	ldr	r3, [sp, #36]	; 0x24
     9d8:	e3530000 	cmp	r3, #0
     9dc:	0a000007 	beq	a00 <main+0x1f8>
                trex_y += velocity;
     9e0:	e59d2020 	ldr	r2, [sp, #32]
     9e4:	e0888002 	add	r8, r8, r2
                velocity += gravity;
     9e8:	e2822001 	add	r2, r2, #1
     9ec:	e58d2020 	str	r2, [sp, #32]
                if (trex_y >= ground) {
     9f0:	e35800c7 	cmp	r8, #199	; 0xc7
                    trex_y = ground;
                    jump = 0;
     9f4:	c3a03000 	movgt	r3, #0
     9f8:	c58d3024 	strgt	r3, [sp, #36]	; 0x24

            if (jump) {
                trex_y += velocity;
                velocity += gravity;
                if (trex_y >= ground) {
                    trex_y = ground;
     9fc:	c3a080c8 	movgt	r8, #200	; 0xc8
                    jump = 0;
                }
            }

            // Cacto
            cactus_x -= 6;
     a00:	e2466006 	sub	r6, r6, #6
            if (cactus_x < -10) cactus_x = 320;
     a04:	e376000a 	cmn	r6, #10
     a08:	b3a06d05 	movlt	r6, #320	; 0x140

            // Colisão com cacto
            if (check_collision(trex_x, trex_y, trex_w, trex_h,
     a0c:	e58d6000 	str	r6, [sp]
     a10:	e3a030c8 	mov	r3, #200	; 0xc8
     a14:	e58d3004 	str	r3, [sp, #4]
     a18:	e3a0300f 	mov	r3, #15
     a1c:	e58d3008 	str	r3, [sp, #8]
     a20:	e3a03012 	mov	r3, #18
     a24:	e58d300c 	str	r3, [sp, #12]
     a28:	e3a0001e 	mov	r0, #30
     a2c:	e1a01008 	mov	r1, r8
     a30:	e3a02018 	mov	r2, #24
     a34:	e3a03024 	mov	r3, #36	; 0x24
     a38:	ebfffe07 	bl	25c <check_collision>
                                cactus_x, cactus_y, cactus_w, cactus_h)) {
                state = 2;
     a3c:	e3500000 	cmp	r0, #0
     a40:	13a04002 	movne	r4, #2
            }

            // Frame do T-Rex
            frame_counter++;
     a44:	e28bb001 	add	r11, r11, #1
            if (frame_counter >= 10) {
     a48:	e35b0009 	cmp	r11, #9
     a4c:	da000011 	ble	a98 <main+0x290>
                frame_counter = 0;
                current_sprite = (current_sprite == right) ? left : right;
     a50:	e59d2018 	ldr	r2, [sp, #24]
     a54:	e2823c01 	add	r3, r2, #256	; 0x100
     a58:	e59d202c 	ldr	r2, [sp, #44]	; 0x2c
     a5c:	e1520003 	cmp	r2, r3
     a60:	059d3018 	ldreq	r3, [sp, #24]
     a64:	02833d0a 	addeq	r3, r3, #640	; 0x280
     a68:	058d302c 	streq	r3, [sp, #44]	; 0x2c
     a6c:	159d2018 	ldrne	r2, [sp, #24]
     a70:	12822c01 	addne	r2, r2, #256	; 0x100
     a74:	158d202c 	strne	r2, [sp, #44]	; 0x2c
                current_bird_sprite = (current_bird_sprite == bird_left) ? bird_right : bird_left;
     a78:	e59d3028 	ldr	r3, [sp, #40]	; 0x28
     a7c:	e59d2018 	ldr	r2, [sp, #24]
     a80:	e1530002 	cmp	r3, r2
     a84:	02823b01 	addeq	r3, r2, #1024	; 0x400
     a88:	058d3028 	streq	r3, [sp, #40]	; 0x28
     a8c:	159d2018 	ldrne	r2, [sp, #24]
     a90:	158d2028 	strne	r2, [sp, #40]	; 0x28
            }

            // Frame do T-Rex
            frame_counter++;
            if (frame_counter >= 10) {
                frame_counter = 0;
     a94:	e3a0b000 	mov	r11, #0
                current_sprite = (current_sprite == right) ? left : right;
                current_bird_sprite = (current_bird_sprite == bird_left) ? bird_right : bird_left;
            }

            // Passarinho
            bird_timer++;
     a98:	e2899001 	add	r9, r9, #1
            if (!bird_active && bird_timer > 100 && (rand() % 100) < 5) {
     a9c:	e3590064 	cmp	r9, #100	; 0x64
     aa0:	d3a03000 	movle	r3, #0
     aa4:	c3a03001 	movgt	r3, #1
     aa8:	e3570000 	cmp	r7, #0
     aac:	13a03000 	movne	r3, #0
     ab0:	e3530000 	cmp	r3, #0
     ab4:	0a000008 	beq	adc <main+0x2d4>
     ab8:	eb000100 	bl	ec0 <rand>
     abc:	e59d3044 	ldr	r3, [sp, #68]	; 0x44
     ac0:	e0c23093 	smull	r3, r2, r3, r0
     ac4:	e1a03fc0 	asr	r3, r0, #31
     ac8:	e06332c2 	rsb	r3, r3, r2, asr #5
     acc:	e3a02064 	mov	r2, #100	; 0x64
     ad0:	e0600392 	mls	r0, r2, r3, r0
     ad4:	e3500004 	cmp	r0, #4
     ad8:	da000007 	ble	afc <main+0x2f4>
                bird_timer = 0;
                bird_x = 320;
                bird_direction = 1 - bird_direction;
            }

            if (bird_active) {
     adc:	e3570000 	cmp	r7, #0
     ae0:	0a000071 	beq	cac <main+0x4a4>
                bird_x -= 8;
     ae4:	e59d201c 	ldr	r2, [sp, #28]
     ae8:	e2422008 	sub	r2, r2, #8
     aec:	e58d201c 	str	r2, [sp, #28]
                if (bird_x < -bird_w) {
                    bird_active = 0;
     af0:	e3720018 	cmn	r2, #24
     af4:	b3a07000 	movlt	r7, #0
     af8:	ea000003 	b	b0c <main+0x304>
            }

            // Passarinho
            bird_timer++;
            if (!bird_active && bird_timer > 100 && (rand() % 100) < 5) {
                bird_active = 1;
     afc:	e3a07001 	mov	r7, #1
                bird_timer = 0;
     b00:	e3a09000 	mov	r9, #0
                bird_x = 320;
                bird_direction = 1 - bird_direction;
            }

            if (bird_active) {
                bird_x -= 8;
     b04:	e3a03f4e 	mov	r3, #312	; 0x138
     b08:	e58d301c 	str	r3, [sp, #28]
                if (bird_x < -bird_w) {
                    bird_active = 0;
                }

                if (check_collision(trex_x, trex_y, trex_w, trex_h,
     b0c:	e59d201c 	ldr	r2, [sp, #28]
     b10:	e58d2000 	str	r2, [sp]
     b14:	e3a03096 	mov	r3, #150	; 0x96
     b18:	e58d3004 	str	r3, [sp, #4]
     b1c:	e3a02018 	mov	r2, #24
     b20:	e58d2008 	str	r2, [sp, #8]
     b24:	e58d200c 	str	r2, [sp, #12]
     b28:	e3a0001e 	mov	r0, #30
     b2c:	e1a01008 	mov	r1, r8
     b30:	e3a03024 	mov	r3, #36	; 0x24
     b34:	ebfffdc8 	bl	25c <check_collision>
                                    bird_x, bird_y, bird_w, bird_h)) {
                    state = 2;
     b38:	e3500000 	cmp	r0, #0
     b3c:	13a04002 	movne	r4, #2
                }
            }

            // Desenho
            clear_screen(black);
     b40:	e59d3014 	ldr	r3, [sp, #20]
     b44:	e6bf0073 	sxth	r0, r3
     b48:	ebfffe34 	bl	420 <clear_screen>
            clear_text_screen();
     b4c:	ebfffde7 	bl	2f0 <clear_text_screen>
            draw_sprite(trex_x, trex_y, current_sprite, 8, 12, SCALE);
     b50:	e3a0300c 	mov	r3, #12
     b54:	e58d3000 	str	r3, [sp]
     b58:	e3a05003 	mov	r5, #3
     b5c:	e58d5004 	str	r5, [sp, #4]
     b60:	e3a0001e 	mov	r0, #30
     b64:	e1a01008 	mov	r1, r8
     b68:	e59d202c 	ldr	r2, [sp, #44]	; 0x2c
     b6c:	e3a03008 	mov	r3, #8
     b70:	ebfffe9f 	bl	5f4 <draw_sprite>
            draw_sprite(cactus_x, cactus_y, cactus_sprite, 5, 6, SCALE);
     b74:	e3a03006 	mov	r3, #6
     b78:	e58d3000 	str	r3, [sp]
     b7c:	e58d5004 	str	r5, [sp, #4]
     b80:	e1a00006 	mov	r0, r6
     b84:	e3a010c8 	mov	r1, #200	; 0xc8
     b88:	e59d203c 	ldr	r2, [sp, #60]	; 0x3c
     b8c:	e3a03005 	mov	r3, #5
     b90:	ebfffe97 	bl	5f4 <draw_sprite>
            if (bird_active) {
     b94:	e3570000 	cmp	r7, #0
     b98:	0a000006 	beq	bb8 <main+0x3b0>
                draw_sprite(bird_x, bird_y, current_bird_sprite, 8, 8, SCALE);
     b9c:	e3a03008 	mov	r3, #8
     ba0:	e58d3000 	str	r3, [sp]
     ba4:	e58d5004 	str	r5, [sp, #4]
     ba8:	e59d001c 	ldr	r0, [sp, #28]
     bac:	e3a01096 	mov	r1, #150	; 0x96
     bb0:	e59d2028 	ldr	r2, [sp, #40]	; 0x28
     bb4:	ebfffe8e 	bl	5f4 <draw_sprite>
            }
            draw_ground(white);
     bb8:	e59d2038 	ldr	r2, [sp, #56]	; 0x38
     bbc:	e6bf0072 	sxth	r0, r2
     bc0:	ebfffe0c 	bl	3f8 <draw_ground>

            char txt[30];
            sprintf(txt, "Score: %d", score);
     bc4:	e28d0050 	add	r0, sp, #80	; 0x50
     bc8:	e3091e00 	movw	r1, #40448	; 0x9e00
     bcc:	e3401000 	movt	r1, #0
     bd0:	e1a0200a 	mov	r2, r10
     bd4:	eb0000ea 	bl	f84 <sprintf>
            video_text(33, 20, txt);
     bd8:	e3a00021 	mov	r0, #33	; 0x21
     bdc:	e3a01014 	mov	r1, #20
     be0:	e28d2050 	add	r2, sp, #80	; 0x50
     be4:	ebfffdb5 	bl	2c0 <video_text>

            volatile int d;
            for (d = 0; d < 70000; d++);
     be8:	e3a03000 	mov	r3, #0
     bec:	e58d304c 	str	r3, [sp, #76]	; 0x4c
     bf0:	e59d204c 	ldr	r2, [sp, #76]	; 0x4c
     bf4:	e301316f 	movw	r3, #4463	; 0x116f
     bf8:	e3403001 	movt	r3, #1
     bfc:	e1520003 	cmp	r2, r3
     c00:	caffff56 	bgt	960 <main+0x158>
     c04:	e301216f 	movw	r2, #4463	; 0x116f
     c08:	e3402001 	movt	r2, #1
     c0c:	e59d304c 	ldr	r3, [sp, #76]	; 0x4c
     c10:	e2833001 	add	r3, r3, #1
     c14:	e58d304c 	str	r3, [sp, #76]	; 0x4c
     c18:	e59d304c 	ldr	r3, [sp, #76]	; 0x4c
     c1c:	e1530002 	cmp	r3, r2
     c20:	dafffff9 	ble	c0c <main+0x404>
     c24:	eaffff4d 	b	960 <main+0x158>
        }
        else if (state == 2) {
     c28:	e3540002 	cmp	r4, #2
     c2c:	1affff4b 	bne	960 <main+0x158>
            clear_screen(black);
     c30:	e59d3014 	ldr	r3, [sp, #20]
     c34:	e6bf0073 	sxth	r0, r3
     c38:	ebfffdf8 	bl	420 <clear_screen>
            clear_text_screen();
     c3c:	ebfffdab 	bl	2f0 <clear_text_screen>
            video_text(34, 14, "GAME OVER");
     c40:	e3a00022 	mov	r0, #34	; 0x22
     c44:	e3a0100e 	mov	r1, #14
     c48:	e59d2040 	ldr	r2, [sp, #64]	; 0x40
     c4c:	ebfffd9b 	bl	2c0 <video_text>
            char txt[30];
            sprintf(txt, "Score: %d", score);
     c50:	e28d0050 	add	r0, sp, #80	; 0x50
     c54:	e3091e00 	movw	r1, #40448	; 0x9e00
     c58:	e3401000 	movt	r1, #0
     c5c:	e1a0200a 	mov	r2, r10
     c60:	eb0000c7 	bl	f84 <sprintf>
            video_text(33, 16, txt);
     c64:	e3a00021 	mov	r0, #33	; 0x21
     c68:	e3a01010 	mov	r1, #16
     c6c:	e28d2050 	add	r2, sp, #80	; 0x50
     c70:	ebfffd92 	bl	2c0 <video_text>
            video_text(25, 18, "PRESSIONE KEY2 PARA REINICIAR");
     c74:	e3a00019 	mov	r0, #25
     c78:	e3a01012 	mov	r1, #18
     c7c:	e3092e18 	movw	r2, #40472	; 0x9e18
     c80:	e3402000 	movt	r2, #0
     c84:	ebfffd8d 	bl	2c0 <video_text>

            if (keys & 0x2) {
     c88:	e2055002 	and	r5, r5, #2
                state = 0;
     c8c:	e3550000 	cmp	r5, #0
     c90:	13a04000 	movne	r4, #0
     c94:	eaffff31 	b	960 <main+0x158>
        else if (state == 1) {
            score += 1;

            if ((keys & 0x2) && jump == 0) {
                jump = 1;
                velocity = -10;
     c98:	e3e02009 	mvn	r2, #9
     c9c:	e58d2020 	str	r2, [sp, #32]
        }
        else if (state == 1) {
            score += 1;

            if ((keys & 0x2) && jump == 0) {
                jump = 1;
     ca0:	e3a03001 	mov	r3, #1
     ca4:	e58d3024 	str	r3, [sp, #36]	; 0x24
     ca8:	eaffff4c 	b	9e0 <main+0x1d8>
                    state = 2;
                }
            }

            // Desenho
            clear_screen(black);
     cac:	e59d2014 	ldr	r2, [sp, #20]
     cb0:	e6bf0072 	sxth	r0, r2
     cb4:	ebfffdd9 	bl	420 <clear_screen>
            clear_text_screen();
     cb8:	ebfffd8c 	bl	2f0 <clear_text_screen>
            draw_sprite(trex_x, trex_y, current_sprite, 8, 12, SCALE);
     cbc:	e3a0300c 	mov	r3, #12
     cc0:	e58d3000 	str	r3, [sp]
     cc4:	e3a05003 	mov	r5, #3
     cc8:	e58d5004 	str	r5, [sp, #4]
     ccc:	e3a0001e 	mov	r0, #30
     cd0:	e1a01008 	mov	r1, r8
     cd4:	e59d202c 	ldr	r2, [sp, #44]	; 0x2c
     cd8:	e3a03008 	mov	r3, #8
     cdc:	ebfffe44 	bl	5f4 <draw_sprite>
            draw_sprite(cactus_x, cactus_y, cactus_sprite, 5, 6, SCALE);
     ce0:	e3a03006 	mov	r3, #6
     ce4:	e58d3000 	str	r3, [sp]
     ce8:	e58d5004 	str	r5, [sp, #4]
     cec:	e1a00006 	mov	r0, r6
     cf0:	e3a010c8 	mov	r1, #200	; 0xc8
     cf4:	e59d203c 	ldr	r2, [sp, #60]	; 0x3c
     cf8:	e3a03005 	mov	r3, #5
     cfc:	ebfffe3c 	bl	5f4 <draw_sprite>
     d00:	eaffffac 	b	bb8 <main+0x3b0>

00000d04 <__aeabi_idiv>:
     d04:	e3510000 	cmp	r1, #0
     d08:	0a000043 	beq	e1c <.divsi3_skip_div0_test+0x110>

00000d0c <.divsi3_skip_div0_test>:
     d0c:	e020c001 	eor	r12, r0, r1
     d10:	42611000 	rsbmi	r1, r1, #0
     d14:	e2512001 	subs	r2, r1, #1
     d18:	0a000027 	beq	dbc <.divsi3_skip_div0_test+0xb0>
     d1c:	e1b03000 	movs	r3, r0
     d20:	42603000 	rsbmi	r3, r0, #0
     d24:	e1530001 	cmp	r3, r1
     d28:	9a000026 	bls	dc8 <.divsi3_skip_div0_test+0xbc>
     d2c:	e1110002 	tst	r1, r2
     d30:	0a000028 	beq	dd8 <.divsi3_skip_div0_test+0xcc>
     d34:	e311020e 	tst	r1, #-536870912	; 0xe0000000
     d38:	01a01181 	lsleq	r1, r1, #3
     d3c:	03a02008 	moveq	r2, #8
     d40:	13a02001 	movne	r2, #1
     d44:	e3510201 	cmp	r1, #268435456	; 0x10000000
     d48:	31510003 	cmpcc	r1, r3
     d4c:	31a01201 	lslcc	r1, r1, #4
     d50:	31a02202 	lslcc	r2, r2, #4
     d54:	3afffffa 	bcc	d44 <.divsi3_skip_div0_test+0x38>
     d58:	e3510102 	cmp	r1, #-2147483648	; 0x80000000
     d5c:	31510003 	cmpcc	r1, r3
     d60:	31a01081 	lslcc	r1, r1, #1
     d64:	31a02082 	lslcc	r2, r2, #1
     d68:	3afffffa 	bcc	d58 <.divsi3_skip_div0_test+0x4c>
     d6c:	e3a00000 	mov	r0, #0
     d70:	e1530001 	cmp	r3, r1
     d74:	20433001 	subcs	r3, r3, r1
     d78:	21800002 	orrcs	r0, r0, r2
     d7c:	e15300a1 	cmp	r3, r1, lsr #1
     d80:	204330a1 	subcs	r3, r3, r1, lsr #1
     d84:	218000a2 	orrcs	r0, r0, r2, lsr #1
     d88:	e1530121 	cmp	r3, r1, lsr #2
     d8c:	20433121 	subcs	r3, r3, r1, lsr #2
     d90:	21800122 	orrcs	r0, r0, r2, lsr #2
     d94:	e15301a1 	cmp	r3, r1, lsr #3
     d98:	204331a1 	subcs	r3, r3, r1, lsr #3
     d9c:	218001a2 	orrcs	r0, r0, r2, lsr #3
     da0:	e3530000 	cmp	r3, #0
     da4:	11b02222 	lsrsne	r2, r2, #4
     da8:	11a01221 	lsrne	r1, r1, #4
     dac:	1affffef 	bne	d70 <.divsi3_skip_div0_test+0x64>
     db0:	e35c0000 	cmp	r12, #0
     db4:	42600000 	rsbmi	r0, r0, #0
     db8:	e12fff1e 	bx	lr
     dbc:	e13c0000 	teq	r12, r0
     dc0:	42600000 	rsbmi	r0, r0, #0
     dc4:	e12fff1e 	bx	lr
     dc8:	33a00000 	movcc	r0, #0
     dcc:	01a00fcc 	asreq	r0, r12, #31
     dd0:	03800001 	orreq	r0, r0, #1
     dd4:	e12fff1e 	bx	lr
     dd8:	e3510801 	cmp	r1, #65536	; 0x10000
     ddc:	21a01821 	lsrcs	r1, r1, #16
     de0:	23a02010 	movcs	r2, #16
     de4:	33a02000 	movcc	r2, #0
     de8:	e3510c01 	cmp	r1, #256	; 0x100
     dec:	21a01421 	lsrcs	r1, r1, #8
     df0:	22822008 	addcs	r2, r2, #8
     df4:	e3510010 	cmp	r1, #16
     df8:	21a01221 	lsrcs	r1, r1, #4
     dfc:	22822004 	addcs	r2, r2, #4
     e00:	e3510004 	cmp	r1, #4
     e04:	82822003 	addhi	r2, r2, #3
     e08:	908220a1 	addls	r2, r2, r1, lsr #1
     e0c:	e35c0000 	cmp	r12, #0
     e10:	e1a00233 	lsr	r0, r3, r2
     e14:	42600000 	rsbmi	r0, r0, #0
     e18:	e12fff1e 	bx	lr
     e1c:	e3500000 	cmp	r0, #0
     e20:	c3e00102 	mvngt	r0, #-2147483648	; 0x80000000
     e24:	b3a00102 	movlt	r0, #-2147483648	; 0x80000000
     e28:	ea000007 	b	e4c <__aeabi_idiv0>

00000e2c <__aeabi_idivmod>:
     e2c:	e3510000 	cmp	r1, #0
     e30:	0afffff9 	beq	e1c <.divsi3_skip_div0_test+0x110>
     e34:	e92d4003 	push	{r0, r1, lr}
     e38:	ebffffb3 	bl	d0c <.divsi3_skip_div0_test>
     e3c:	e8bd4006 	pop	{r1, r2, lr}
     e40:	e0030092 	mul	r3, r2, r0
     e44:	e0411003 	sub	r1, r1, r3
     e48:	e12fff1e 	bx	lr

00000e4c <__aeabi_idiv0>:
     e4c:	e12fff1e 	bx	lr

00000e50 <atexit>:
     e50:	e1a01000 	mov	r1, r0
     e54:	e3a00000 	mov	r0, #0
     e58:	e92d4008 	push	{r3, lr}
     e5c:	e1a02000 	mov	r2, r0
     e60:	e1a03000 	mov	r3, r0
     e64:	eb000842 	bl	2f74 <__register_exitproc>
     e68:	e8bd4008 	pop	{r3, lr}
     e6c:	e12fff1e 	bx	lr

00000e70 <exit>:
     e70:	e92d4008 	push	{r3, lr}
     e74:	e3a01000 	mov	r1, #0
     e78:	e1a04000 	mov	r4, r0
     e7c:	eb000879 	bl	3068 <__call_exitprocs>
     e80:	e59f3018 	ldr	r3, [pc, #24]	; ea0 <exit+0x30>
     e84:	e5930000 	ldr	r0, [r3]
     e88:	e590303c 	ldr	r3, [r0, #60]	; 0x3c
     e8c:	e3530000 	cmp	r3, #0
     e90:	11a0e00f 	movne	lr, pc
     e94:	112fff13 	bxne	r3
     e98:	e1a00004 	mov	r0, r4
     e9c:	eb002366 	bl	9c3c <_exit>
     ea0:	00009e38 	.word	0x00009e38

00000ea4 <srand>:
     ea4:	e59f3010 	ldr	r3, [pc, #16]	; ebc <srand+0x18>
     ea8:	e5933000 	ldr	r3, [r3]
     eac:	e3a02000 	mov	r2, #0
     eb0:	e58300a8 	str	r0, [r3, #168]	; 0xa8
     eb4:	e58320ac 	str	r2, [r3, #172]	; 0xac
     eb8:	e12fff1e 	bx	lr
     ebc:	0000a5f0 	.word	0x0000a5f0

00000ec0 <rand>:
     ec0:	e52d4004 	push	{r4}		; (str r4, [sp, #-4]!)
     ec4:	e59f3044 	ldr	r3, [pc, #68]	; f10 <rand+0x50>
     ec8:	e593c000 	ldr	r12, [r3]
     ecc:	e59f4040 	ldr	r4, [pc, #64]	; f14 <rand+0x54>
     ed0:	e59c20a8 	ldr	r2, [r12, #168]	; 0xa8
     ed4:	e0040492 	mul	r4, r2, r4
     ed8:	e59c10ac 	ldr	r1, [r12, #172]	; 0xac
     edc:	e59f3034 	ldr	r3, [pc, #52]	; f18 <rand+0x58>
     ee0:	e0244193 	mla	r4, r3, r1, r4
     ee4:	e0810392 	umull	r0, r1, r2, r3
     ee8:	e3a02001 	mov	r2, #1
     eec:	e0922000 	adds	r2, r2, r0
     ef0:	e0841001 	add	r1, r4, r1
     ef4:	e3a03000 	mov	r3, #0
     ef8:	e0a33001 	adc	r3, r3, r1
     efc:	e58c20a8 	str	r2, [r12, #168]	; 0xa8
     f00:	e58c30ac 	str	r3, [r12, #172]	; 0xac
     f04:	e3c30102 	bic	r0, r3, #-2147483648	; 0x80000000
     f08:	e8bd0010 	ldmfd	sp!, {r4}
     f0c:	e12fff1e 	bx	lr
     f10:	0000a5f0 	.word	0x0000a5f0
     f14:	5851f42d 	.word	0x5851f42d
     f18:	4c957f2d 	.word	0x4c957f2d

00000f1c <_sprintf_r>:
     f1c:	e92d000c 	push	{r2, r3}
     f20:	e92d4030 	push	{r4, r5, lr}
     f24:	e24dd074 	sub	sp, sp, #116	; 0x74
     f28:	e28dc084 	add	r12, sp, #132	; 0x84
     f2c:	e3e0e102 	mvn	lr, #-2147483648	; 0x80000000
     f30:	e1a04001 	mov	r4, r1
     f34:	e59d2080 	ldr	r2, [sp, #128]	; 0x80
     f38:	e1a0300c 	mov	r3, r12
     f3c:	e58de010 	str	lr, [sp, #16]
     f40:	e58de01c 	str	lr, [sp, #28]
     f44:	e28d1008 	add	r1, sp, #8
     f48:	e3e0e000 	mvn	lr, #0
     f4c:	e3a05f82 	mov	r5, #520	; 0x208
     f50:	e1cd51b4 	strh	r5, [sp, #20]
     f54:	e58d4008 	str	r4, [sp, #8]
     f58:	e58d4018 	str	r4, [sp, #24]
     f5c:	e1cde1b6 	strh	lr, [sp, #22]
     f60:	e58dc004 	str	r12, [sp, #4]
     f64:	eb000023 	bl	ff8 <_svfprintf_r>
     f68:	e59d3008 	ldr	r3, [sp, #8]
     f6c:	e3a02000 	mov	r2, #0
     f70:	e5c32000 	strb	r2, [r3]
     f74:	e28dd074 	add	sp, sp, #116	; 0x74
     f78:	e8bd4030 	pop	{r4, r5, lr}
     f7c:	e28dd008 	add	sp, sp, #8
     f80:	e12fff1e 	bx	lr

00000f84 <sprintf>:
     f84:	e92d000e 	push	{r1, r2, r3}
     f88:	e92d4030 	push	{r4, r5, lr}
     f8c:	e59f3060 	ldr	r3, [pc, #96]	; ff4 <sprintf+0x70>
     f90:	e24dd070 	sub	sp, sp, #112	; 0x70
     f94:	e28dc080 	add	r12, sp, #128	; 0x80
     f98:	e3e0e102 	mvn	lr, #-2147483648	; 0x80000000
     f9c:	e1a04000 	mov	r4, r0
     fa0:	e59d207c 	ldr	r2, [sp, #124]	; 0x7c
     fa4:	e58de010 	str	lr, [sp, #16]
     fa8:	e58de01c 	str	lr, [sp, #28]
     fac:	e5930000 	ldr	r0, [r3]
     fb0:	e3e0e000 	mvn	lr, #0
     fb4:	e1a0300c 	mov	r3, r12
     fb8:	e28d1008 	add	r1, sp, #8
     fbc:	e3a05f82 	mov	r5, #520	; 0x208
     fc0:	e1cd51b4 	strh	r5, [sp, #20]
     fc4:	e58d4008 	str	r4, [sp, #8]
     fc8:	e58d4018 	str	r4, [sp, #24]
     fcc:	e1cde1b6 	strh	lr, [sp, #22]
     fd0:	e58dc004 	str	r12, [sp, #4]
     fd4:	eb000007 	bl	ff8 <_svfprintf_r>
     fd8:	e59d3008 	ldr	r3, [sp, #8]
     fdc:	e3a02000 	mov	r2, #0
     fe0:	e5c32000 	strb	r2, [r3]
     fe4:	e28dd070 	add	sp, sp, #112	; 0x70
     fe8:	e8bd4030 	pop	{r4, r5, lr}
     fec:	e28dd00c 	add	sp, sp, #12
     ff0:	e12fff1e 	bx	lr
     ff4:	0000a5f0 	.word	0x0000a5f0

00000ff8 <_svfprintf_r>:
     ff8:	e92d4ff0 	push	{r4, r5, r6, r7, r8, r9, r10, r11, lr}
     ffc:	e24ddf45 	sub	sp, sp, #276	; 0x114
    1000:	e58d1030 	str	r1, [sp, #48]	; 0x30
    1004:	e58d3048 	str	r3, [sp, #72]	; 0x48
    1008:	e1a04002 	mov	r4, r2
    100c:	e58d0040 	str	r0, [sp, #64]	; 0x40
    1010:	eb000ede 	bl	4b90 <_localeconv_r>
    1014:	e5900000 	ldr	r0, [r0]
    1018:	e58d0058 	str	r0, [sp, #88]	; 0x58
    101c:	eb00157a 	bl	660c <strlen>
    1020:	e59dc030 	ldr	r12, [sp, #48]	; 0x30
    1024:	e1dc30bc 	ldrh	r3, [r12, #12]
    1028:	e58d005c 	str	r0, [sp, #92]	; 0x5c
    102c:	e3a01000 	mov	r1, #0
    1030:	e3a00000 	mov	r0, #0
    1034:	e3130080 	tst	r3, #128	; 0x80
    1038:	e58d0060 	str	r0, [sp, #96]	; 0x60
    103c:	e58d1064 	str	r1, [sp, #100]	; 0x64
    1040:	0a000002 	beq	1050 <_svfprintf_r+0x58>
    1044:	e59c3010 	ldr	r3, [r12, #16]
    1048:	e3530000 	cmp	r3, #0
    104c:	0a0006bb 	beq	2b40 <_svfprintf_r+0x1b48>
    1050:	e3a03000 	mov	r3, #0
    1054:	e28dc0d0 	add	r12, sp, #208	; 0xd0
    1058:	e1a0b004 	mov	r11, r4
    105c:	e58dc01c 	str	r12, [sp, #28]
    1060:	e58d304c 	str	r3, [sp, #76]	; 0x4c
    1064:	e58dc09c 	str	r12, [sp, #156]	; 0x9c
    1068:	e58d30a4 	str	r3, [sp, #164]	; 0xa4
    106c:	e58d30a0 	str	r3, [sp, #160]	; 0xa0
    1070:	e58d306c 	str	r3, [sp, #108]	; 0x6c
    1074:	e58d3068 	str	r3, [sp, #104]	; 0x68
    1078:	e58d302c 	str	r3, [sp, #44]	; 0x2c
    107c:	e58db024 	str	r11, [sp, #36]	; 0x24
    1080:	e1a04003 	mov	r4, r3
    1084:	e1a0a00c 	mov	r10, r12
    1088:	e59dc024 	ldr	r12, [sp, #36]	; 0x24
    108c:	e5dc3000 	ldrb	r3, [r12]
    1090:	e3530025 	cmp	r3, #37	; 0x25
    1094:	13530000 	cmpne	r3, #0
    1098:	0a0000a5 	beq	1334 <_svfprintf_r+0x33c>
    109c:	e28c3001 	add	r3, r12, #1
    10a0:	e1a06003 	mov	r6, r3
    10a4:	e5d33000 	ldrb	r3, [r3]
    10a8:	e3530025 	cmp	r3, #37	; 0x25
    10ac:	13530000 	cmpne	r3, #0
    10b0:	e2863001 	add	r3, r6, #1
    10b4:	1afffff9 	bne	10a0 <_svfprintf_r+0xa8>
    10b8:	e59d4024 	ldr	r4, [sp, #36]	; 0x24
    10bc:	e0567004 	subs	r7, r6, r4
    10c0:	0a00000e 	beq	1100 <_svfprintf_r+0x108>
    10c4:	e28d40a0 	add	r4, sp, #160	; 0xa0
    10c8:	e8940030 	ldm	r4, {r4, r5}
    10cc:	e59dc024 	ldr	r12, [sp, #36]	; 0x24
    10d0:	e2844001 	add	r4, r4, #1
    10d4:	e0855007 	add	r5, r5, r7
    10d8:	e3540007 	cmp	r4, #7
    10dc:	e58ac000 	str	r12, [r10]
    10e0:	e58a7004 	str	r7, [r10, #4]
    10e4:	e58d50a4 	str	r5, [sp, #164]	; 0xa4
    10e8:	e58d40a0 	str	r4, [sp, #160]	; 0xa0
    10ec:	d28aa008 	addle	r10, r10, #8
    10f0:	ca000077 	bgt	12d4 <_svfprintf_r+0x2dc>
    10f4:	e59d402c 	ldr	r4, [sp, #44]	; 0x2c
    10f8:	e0844007 	add	r4, r4, r7
    10fc:	e58d402c 	str	r4, [sp, #44]	; 0x2c
    1100:	e5d63000 	ldrb	r3, [r6]
    1104:	e3530000 	cmp	r3, #0
    1108:	0a000079 	beq	12f4 <_svfprintf_r+0x2fc>
    110c:	e286c001 	add	r12, r6, #1
    1110:	e3a03000 	mov	r3, #0
    1114:	e58dc024 	str	r12, [sp, #36]	; 0x24
    1118:	e58d3034 	str	r3, [sp, #52]	; 0x34
    111c:	e5cd307b 	strb	r3, [sp, #123]	; 0x7b
    1120:	e5d67001 	ldrb	r7, [r6, #1]
    1124:	e58d3020 	str	r3, [sp, #32]
    1128:	e3e06000 	mvn	r6, #0
    112c:	e3a01020 	mov	r1, #32
    1130:	e3a0202b 	mov	r2, #43	; 0x2b
    1134:	e1a0300c 	mov	r3, r12
    1138:	e2833001 	add	r3, r3, #1
    113c:	e2470020 	sub	r0, r7, #32
    1140:	e3500058 	cmp	r0, #88	; 0x58
    1144:	979ff100 	ldrls	pc, [pc, r0, lsl #2]
    1148:	ea00022d 	b	1a04 <_svfprintf_r+0xa0c>
    114c:	00001a30 	.word	0x00001a30
    1150:	00001a04 	.word	0x00001a04
    1154:	00001a04 	.word	0x00001a04
    1158:	00001a48 	.word	0x00001a48
    115c:	00001a04 	.word	0x00001a04
    1160:	00001a04 	.word	0x00001a04
    1164:	00001a04 	.word	0x00001a04
    1168:	00001a04 	.word	0x00001a04
    116c:	00001a04 	.word	0x00001a04
    1170:	00001a04 	.word	0x00001a04
    1174:	00001a5c 	.word	0x00001a5c
    1178:	0000133c 	.word	0x0000133c
    117c:	00001a04 	.word	0x00001a04
    1180:	000012c0 	.word	0x000012c0
    1184:	00001348 	.word	0x00001348
    1188:	00001a04 	.word	0x00001a04
    118c:	00001394 	.word	0x00001394
    1190:	000013a8 	.word	0x000013a8
    1194:	000013a8 	.word	0x000013a8
    1198:	000013a8 	.word	0x000013a8
    119c:	000013a8 	.word	0x000013a8
    11a0:	000013a8 	.word	0x000013a8
    11a4:	000013a8 	.word	0x000013a8
    11a8:	000013a8 	.word	0x000013a8
    11ac:	000013a8 	.word	0x000013a8
    11b0:	000013a8 	.word	0x000013a8
    11b4:	00001a04 	.word	0x00001a04
    11b8:	00001a04 	.word	0x00001a04
    11bc:	00001a04 	.word	0x00001a04
    11c0:	00001a04 	.word	0x00001a04
    11c4:	00001a04 	.word	0x00001a04
    11c8:	00001a04 	.word	0x00001a04
    11cc:	00001a04 	.word	0x00001a04
    11d0:	00001a04 	.word	0x00001a04
    11d4:	00001a04 	.word	0x00001a04
    11d8:	00001a04 	.word	0x00001a04
    11dc:	000013d8 	.word	0x000013d8
    11e0:	0000161c 	.word	0x0000161c
    11e4:	00001a04 	.word	0x00001a04
    11e8:	0000161c 	.word	0x0000161c
    11ec:	00001a04 	.word	0x00001a04
    11f0:	00001a04 	.word	0x00001a04
    11f4:	00001a04 	.word	0x00001a04
    11f8:	00001a04 	.word	0x00001a04
    11fc:	000016d4 	.word	0x000016d4
    1200:	00001a04 	.word	0x00001a04
    1204:	00001a04 	.word	0x00001a04
    1208:	00001a84 	.word	0x00001a84
    120c:	00001a04 	.word	0x00001a04
    1210:	00001a04 	.word	0x00001a04
    1214:	00001a04 	.word	0x00001a04
    1218:	00001a04 	.word	0x00001a04
    121c:	00001a04 	.word	0x00001a04
    1220:	00001ad0 	.word	0x00001ad0
    1224:	00001a04 	.word	0x00001a04
    1228:	00001a04 	.word	0x00001a04
    122c:	000016e8 	.word	0x000016e8
    1230:	00001a04 	.word	0x00001a04
    1234:	00001a04 	.word	0x00001a04
    1238:	00001a04 	.word	0x00001a04
    123c:	00001a04 	.word	0x00001a04
    1240:	00001a04 	.word	0x00001a04
    1244:	00001a04 	.word	0x00001a04
    1248:	00001a04 	.word	0x00001a04
    124c:	00001a04 	.word	0x00001a04
    1250:	00001a04 	.word	0x00001a04
    1254:	00001a04 	.word	0x00001a04
    1258:	00001740 	.word	0x00001740
    125c:	00001784 	.word	0x00001784
    1260:	0000161c 	.word	0x0000161c
    1264:	0000161c 	.word	0x0000161c
    1268:	0000161c 	.word	0x0000161c
    126c:	000017f0 	.word	0x000017f0
    1270:	00001784 	.word	0x00001784
    1274:	00001a04 	.word	0x00001a04
    1278:	00001a04 	.word	0x00001a04
    127c:	00001804 	.word	0x00001804
    1280:	00001a04 	.word	0x00001a04
    1284:	00001834 	.word	0x00001834
    1288:	00001868 	.word	0x00001868
    128c:	000018a4 	.word	0x000018a4
    1290:	000018f4 	.word	0x000018f4
    1294:	00001a04 	.word	0x00001a04
    1298:	00001908 	.word	0x00001908
    129c:	00001a04 	.word	0x00001a04
    12a0:	0000197c 	.word	0x0000197c
    12a4:	00001a04 	.word	0x00001a04
    12a8:	00001a04 	.word	0x00001a04
    12ac:	000019b8 	.word	0x000019b8
    12b0:	e59dc034 	ldr	r12, [sp, #52]	; 0x34
    12b4:	e26cc000 	rsb	r12, r12, #0
    12b8:	e58dc034 	str	r12, [sp, #52]	; 0x34
    12bc:	e58d0048 	str	r0, [sp, #72]	; 0x48
    12c0:	e59d4020 	ldr	r4, [sp, #32]
    12c4:	e3844004 	orr	r4, r4, #4
    12c8:	e58d4020 	str	r4, [sp, #32]
    12cc:	e5d37000 	ldrb	r7, [r3]
    12d0:	eaffff98 	b	1138 <_svfprintf_r+0x140>
    12d4:	e59d0040 	ldr	r0, [sp, #64]	; 0x40
    12d8:	e59d1030 	ldr	r1, [sp, #48]	; 0x30
    12dc:	e28d209c 	add	r2, sp, #156	; 0x9c
    12e0:	eb0014e1 	bl	666c <__ssprint_r>
    12e4:	e3500000 	cmp	r0, #0
    12e8:	1a000007 	bne	130c <_svfprintf_r+0x314>
    12ec:	e28da0d0 	add	r10, sp, #208	; 0xd0
    12f0:	eaffff7f 	b	10f4 <_svfprintf_r+0xfc>
    12f4:	e59d30a4 	ldr	r3, [sp, #164]	; 0xa4
    12f8:	e3530000 	cmp	r3, #0
    12fc:	159d0040 	ldrne	r0, [sp, #64]	; 0x40
    1300:	159d1030 	ldrne	r1, [sp, #48]	; 0x30
    1304:	128d209c 	addne	r2, sp, #156	; 0x9c
    1308:	1b0014d7 	blne	666c <__ssprint_r>
    130c:	e59d4030 	ldr	r4, [sp, #48]	; 0x30
    1310:	e1d430bc 	ldrh	r3, [r4, #12]
    1314:	e59dc02c 	ldr	r12, [sp, #44]	; 0x2c
    1318:	e3130040 	tst	r3, #64	; 0x40
    131c:	13e0c000 	mvnne	r12, #0
    1320:	e58dc02c 	str	r12, [sp, #44]	; 0x2c
    1324:	e59d002c 	ldr	r0, [sp, #44]	; 0x2c
    1328:	e28ddf45 	add	sp, sp, #276	; 0x114
    132c:	e8bd4ff0 	pop	{r4, r5, r6, r7, r8, r9, r10, r11, lr}
    1330:	e12fff1e 	bx	lr
    1334:	e59d6024 	ldr	r6, [sp, #36]	; 0x24
    1338:	eaffff70 	b	1100 <_svfprintf_r+0x108>
    133c:	e5cd207b 	strb	r2, [sp, #123]	; 0x7b
    1340:	e5d37000 	ldrb	r7, [r3]
    1344:	eaffff7b 	b	1138 <_svfprintf_r+0x140>
    1348:	e1a0c003 	mov	r12, r3
    134c:	e4dc7001 	ldrb	r7, [r12], #1
    1350:	e357002a 	cmp	r7, #42	; 0x2a
    1354:	0a0006de 	beq	2ed4 <_svfprintf_r+0x1edc>
    1358:	e2470030 	sub	r0, r7, #48	; 0x30
    135c:	e3500009 	cmp	r0, #9
    1360:	81a0300c 	movhi	r3, r12
    1364:	83a06000 	movhi	r6, #0
    1368:	8affff73 	bhi	113c <_svfprintf_r+0x144>
    136c:	e3a06000 	mov	r6, #0
    1370:	e4dc7001 	ldrb	r7, [r12], #1
    1374:	e0866106 	add	r6, r6, r6, lsl #2
    1378:	e0806086 	add	r6, r0, r6, lsl #1
    137c:	e2470030 	sub	r0, r7, #48	; 0x30
    1380:	e3500009 	cmp	r0, #9
    1384:	e1a0300c 	mov	r3, r12
    1388:	9afffff8 	bls	1370 <_svfprintf_r+0x378>
    138c:	e1866fc6 	orr	r6, r6, r6, asr #31
    1390:	eaffff69 	b	113c <_svfprintf_r+0x144>
    1394:	e59dc020 	ldr	r12, [sp, #32]
    1398:	e38cc080 	orr	r12, r12, #128	; 0x80
    139c:	e58dc020 	str	r12, [sp, #32]
    13a0:	e5d37000 	ldrb	r7, [r3]
    13a4:	eaffff63 	b	1138 <_svfprintf_r+0x140>
    13a8:	e1a0c003 	mov	r12, r3
    13ac:	e3a00000 	mov	r0, #0
    13b0:	e2473030 	sub	r3, r7, #48	; 0x30
    13b4:	e4dc7001 	ldrb	r7, [r12], #1
    13b8:	e2474030 	sub	r4, r7, #48	; 0x30
    13bc:	e0800100 	add	r0, r0, r0, lsl #2
    13c0:	e3540009 	cmp	r4, #9
    13c4:	e0830080 	add	r0, r3, r0, lsl #1
    13c8:	e1a0300c 	mov	r3, r12
    13cc:	9afffff7 	bls	13b0 <_svfprintf_r+0x3b8>
    13d0:	e58d0034 	str	r0, [sp, #52]	; 0x34
    13d4:	eaffff58 	b	113c <_svfprintf_r+0x144>
    13d8:	e59dc020 	ldr	r12, [sp, #32]
    13dc:	e38cc010 	orr	r12, r12, #16
    13e0:	e58dc020 	str	r12, [sp, #32]
    13e4:	e59d4020 	ldr	r4, [sp, #32]
    13e8:	e3140020 	tst	r4, #32
    13ec:	e58d3024 	str	r3, [sp, #36]	; 0x24
    13f0:	0a0000e7 	beq	1794 <_svfprintf_r+0x79c>
    13f4:	e59dc048 	ldr	r12, [sp, #72]	; 0x48
    13f8:	e28c1007 	add	r1, r12, #7
    13fc:	e3c11007 	bic	r1, r1, #7
    1400:	e891000c 	ldm	r1, {r2, r3}
    1404:	e2811008 	add	r1, r1, #8
    1408:	e58d1048 	str	r1, [sp, #72]	; 0x48
    140c:	e1a04002 	mov	r4, r2
    1410:	e1a05003 	mov	r5, r3
    1414:	e3520000 	cmp	r2, #0
    1418:	e2d30000 	sbcs	r0, r3, #0
    141c:	ba0000ea 	blt	17cc <_svfprintf_r+0x7d4>
    1420:	e1941005 	orrs	r1, r4, r5
    1424:	03a02000 	moveq	r2, #0
    1428:	13a02001 	movne	r2, #1
    142c:	e3a03001 	mov	r3, #1
    1430:	e3560000 	cmp	r6, #0
    1434:	a59dc020 	ldrge	r12, [sp, #32]
    1438:	a3ccc080 	bicge	r12, r12, #128	; 0x80
    143c:	a58dc020 	strge	r12, [sp, #32]
    1440:	e3560000 	cmp	r6, #0
    1444:	13822001 	orrne	r2, r2, #1
    1448:	e3520000 	cmp	r2, #0
    144c:	0a0002ac 	beq	1f04 <_svfprintf_r+0xf0c>
    1450:	e3530001 	cmp	r3, #1
    1454:	0a00039d 	beq	22d0 <_svfprintf_r+0x12d8>
    1458:	e3530002 	cmp	r3, #2
    145c:	e28dc0cf 	add	r12, sp, #207	; 0xcf
    1460:	0a000339 	beq	214c <_svfprintf_r+0x1154>
    1464:	e3a00007 	mov	r0, #7
    1468:	e1a081a4 	lsr	r8, r4, #3
    146c:	e1888e85 	orr	r8, r8, r5, lsl #29
    1470:	e0042000 	and	r2, r4, r0
    1474:	e1a031a5 	lsr	r3, r5, #3
    1478:	e1a04008 	mov	r4, r8
    147c:	e2822030 	add	r2, r2, #48	; 0x30
    1480:	e1a05003 	mov	r5, r3
    1484:	e20220ff 	and	r2, r2, #255	; 0xff
    1488:	e1943005 	orrs	r3, r4, r5
    148c:	e1a0800c 	mov	r8, r12
    1490:	e5cc2000 	strb	r2, [r12]
    1494:	e24cc001 	sub	r12, r12, #1
    1498:	1afffff2 	bne	1468 <_svfprintf_r+0x470>
    149c:	e59d4020 	ldr	r4, [sp, #32]
    14a0:	e3140001 	tst	r4, #1
    14a4:	e1a03008 	mov	r3, r8
    14a8:	0a00038e 	beq	22e8 <_svfprintf_r+0x12f0>
    14ac:	e3520030 	cmp	r2, #48	; 0x30
    14b0:	0a000334 	beq	2188 <_svfprintf_r+0x1190>
    14b4:	e59d401c 	ldr	r4, [sp, #28]
    14b8:	e3a02030 	mov	r2, #48	; 0x30
    14bc:	e06c4004 	rsb	r4, r12, r4
    14c0:	e5432001 	strb	r2, [r3, #-1]
    14c4:	e58d4038 	str	r4, [sp, #56]	; 0x38
    14c8:	e1a0800c 	mov	r8, r12
    14cc:	e59d4038 	ldr	r4, [sp, #56]	; 0x38
    14d0:	e3a0c000 	mov	r12, #0
    14d4:	e1540006 	cmp	r4, r6
    14d8:	b1a04006 	movlt	r4, r6
    14dc:	e58d4028 	str	r4, [sp, #40]	; 0x28
    14e0:	e5dd307b 	ldrb	r3, [sp, #123]	; 0x7b
    14e4:	e58d6044 	str	r6, [sp, #68]	; 0x44
    14e8:	e58dc054 	str	r12, [sp, #84]	; 0x54
    14ec:	e3530000 	cmp	r3, #0
    14f0:	0a000002 	beq	1500 <_svfprintf_r+0x508>
    14f4:	e59d4028 	ldr	r4, [sp, #40]	; 0x28
    14f8:	e2844001 	add	r4, r4, #1
    14fc:	e58d4028 	str	r4, [sp, #40]	; 0x28
    1500:	e59dc020 	ldr	r12, [sp, #32]
    1504:	e21cc002 	ands	r12, r12, #2
    1508:	159d4028 	ldrne	r4, [sp, #40]	; 0x28
    150c:	e58dc03c 	str	r12, [sp, #60]	; 0x3c
    1510:	e59dc020 	ldr	r12, [sp, #32]
    1514:	12844002 	addne	r4, r4, #2
    1518:	158d4028 	strne	r4, [sp, #40]	; 0x28
    151c:	e21cc084 	ands	r12, r12, #132	; 0x84
    1520:	e58dc050 	str	r12, [sp, #80]	; 0x50
    1524:	1a00017d 	bne	1b20 <_svfprintf_r+0xb28>
    1528:	e59d4034 	ldr	r4, [sp, #52]	; 0x34
    152c:	e59dc028 	ldr	r12, [sp, #40]	; 0x28
    1530:	e06c6004 	rsb	r6, r12, r4
    1534:	e3560000 	cmp	r6, #0
    1538:	da000178 	ble	1b20 <_svfprintf_r+0xb28>
    153c:	e28d40a0 	add	r4, sp, #160	; 0xa0
    1540:	e3560010 	cmp	r6, #16
    1544:	e8940030 	ldm	r4, {r4, r5}
    1548:	e59f9fc8 	ldr	r9, [pc, #4040]	; 2518 <_svfprintf_r+0x1520>
    154c:	da000020 	ble	15d4 <_svfprintf_r+0x5dc>
    1550:	e58d7070 	str	r7, [sp, #112]	; 0x70
    1554:	e58d8074 	str	r8, [sp, #116]	; 0x74
    1558:	e3a0b010 	mov	r11, #16
    155c:	e1a08006 	mov	r8, r6
    1560:	e59d7030 	ldr	r7, [sp, #48]	; 0x30
    1564:	e59d6040 	ldr	r6, [sp, #64]	; 0x40
    1568:	ea000002 	b	1578 <_svfprintf_r+0x580>
    156c:	e2488010 	sub	r8, r8, #16
    1570:	e3580010 	cmp	r8, #16
    1574:	da000013 	ble	15c8 <_svfprintf_r+0x5d0>
    1578:	e2844001 	add	r4, r4, #1
    157c:	e3540007 	cmp	r4, #7
    1580:	e2855010 	add	r5, r5, #16
    1584:	e88a0a00 	stm	r10, {r9, r11}
    1588:	e58d50a4 	str	r5, [sp, #164]	; 0xa4
    158c:	e58d40a0 	str	r4, [sp, #160]	; 0xa0
    1590:	d28aa008 	addle	r10, r10, #8
    1594:	dafffff4 	ble	156c <_svfprintf_r+0x574>
    1598:	e1a00006 	mov	r0, r6
    159c:	e1a01007 	mov	r1, r7
    15a0:	e28d209c 	add	r2, sp, #156	; 0x9c
    15a4:	eb001430 	bl	666c <__ssprint_r>
    15a8:	e3500000 	cmp	r0, #0
    15ac:	1affff56 	bne	130c <_svfprintf_r+0x314>
    15b0:	e2488010 	sub	r8, r8, #16
    15b4:	e28d40a0 	add	r4, sp, #160	; 0xa0
    15b8:	e3580010 	cmp	r8, #16
    15bc:	e8940030 	ldm	r4, {r4, r5}
    15c0:	e28da0d0 	add	r10, sp, #208	; 0xd0
    15c4:	caffffeb 	bgt	1578 <_svfprintf_r+0x580>
    15c8:	e1a06008 	mov	r6, r8
    15cc:	e28d7070 	add	r7, sp, #112	; 0x70
    15d0:	e8970180 	ldm	r7, {r7, r8}
    15d4:	e2844001 	add	r4, r4, #1
    15d8:	e0855006 	add	r5, r5, r6
    15dc:	e3540007 	cmp	r4, #7
    15e0:	e58a9000 	str	r9, [r10]
    15e4:	e58a6004 	str	r6, [r10, #4]
    15e8:	e58d50a4 	str	r5, [sp, #164]	; 0xa4
    15ec:	e58d40a0 	str	r4, [sp, #160]	; 0xa0
    15f0:	d28aa008 	addle	r10, r10, #8
    15f4:	da00014a 	ble	1b24 <_svfprintf_r+0xb2c>
    15f8:	e59d0040 	ldr	r0, [sp, #64]	; 0x40
    15fc:	e59d1030 	ldr	r1, [sp, #48]	; 0x30
    1600:	e28d209c 	add	r2, sp, #156	; 0x9c
    1604:	eb001418 	bl	666c <__ssprint_r>
    1608:	e3500000 	cmp	r0, #0
    160c:	1affff3e 	bne	130c <_svfprintf_r+0x314>
    1610:	e59d50a4 	ldr	r5, [sp, #164]	; 0xa4
    1614:	e28da0d0 	add	r10, sp, #208	; 0xd0
    1618:	ea000141 	b	1b24 <_svfprintf_r+0xb2c>
    161c:	e59d4020 	ldr	r4, [sp, #32]
    1620:	e3140008 	tst	r4, #8
    1624:	159dc048 	ldrne	r12, [sp, #72]	; 0x48
    1628:	059d4048 	ldreq	r4, [sp, #72]	; 0x48
    162c:	e58d3024 	str	r3, [sp, #36]	; 0x24
    1630:	128c1007 	addne	r1, r12, #7
    1634:	02841007 	addeq	r1, r4, #7
    1638:	e3c11007 	bic	r1, r1, #7
    163c:	e5919000 	ldr	r9, [r1]
    1640:	e5915004 	ldr	r5, [r1, #4]
    1644:	e2811008 	add	r1, r1, #8
    1648:	e58d1048 	str	r1, [sp, #72]	; 0x48
    164c:	e1a00009 	mov	r0, r9
    1650:	e1a01005 	mov	r1, r5
    1654:	e58d0060 	str	r0, [sp, #96]	; 0x60
    1658:	e58d1064 	str	r1, [sp, #100]	; 0x64
    165c:	e1a01005 	mov	r1, r5
    1660:	e1a00009 	mov	r0, r9
    1664:	eb001331 	bl	6330 <__fpclassifyd>
    1668:	e3500001 	cmp	r0, #1
    166c:	e1a01005 	mov	r1, r5
    1670:	e1a00009 	mov	r0, r9
    1674:	1a000414 	bne	26cc <_svfprintf_r+0x16d4>
    1678:	e3a03000 	mov	r3, #0
    167c:	e3a02000 	mov	r2, #0
    1680:	eb001e8b 	bl	90b4 <__aeabi_dcmplt>
    1684:	e3a04003 	mov	r4, #3
    1688:	e58d4028 	str	r4, [sp, #40]	; 0x28
    168c:	e59d4020 	ldr	r4, [sp, #32]
    1690:	e3500000 	cmp	r0, #0
    1694:	13a0302d 	movne	r3, #45	; 0x2d
    1698:	e3a0c000 	mov	r12, #0
    169c:	e3c44080 	bic	r4, r4, #128	; 0x80
    16a0:	e59f0e74 	ldr	r0, [pc, #3700]	; 251c <_svfprintf_r+0x1524>
    16a4:	05dd307b 	ldrbeq	r3, [sp, #123]	; 0x7b
    16a8:	15cd307b 	strbne	r3, [sp, #123]	; 0x7b
    16ac:	e58dc044 	str	r12, [sp, #68]	; 0x44
    16b0:	e3570047 	cmp	r7, #71	; 0x47
    16b4:	e58d4020 	str	r4, [sp, #32]
    16b8:	e3a0c003 	mov	r12, #3
    16bc:	e3a04000 	mov	r4, #0
    16c0:	e59f8e58 	ldr	r8, [pc, #3672]	; 2520 <_svfprintf_r+0x1528>
    16c4:	e58dc038 	str	r12, [sp, #56]	; 0x38
    16c8:	d1a08000 	movle	r8, r0
    16cc:	e58d4054 	str	r4, [sp, #84]	; 0x54
    16d0:	eaffff85 	b	14ec <_svfprintf_r+0x4f4>
    16d4:	e59d4020 	ldr	r4, [sp, #32]
    16d8:	e3844008 	orr	r4, r4, #8
    16dc:	e58d4020 	str	r4, [sp, #32]
    16e0:	e5d37000 	ldrb	r7, [r3]
    16e4:	eafffe93 	b	1138 <_svfprintf_r+0x140>
    16e8:	e59d4020 	ldr	r4, [sp, #32]
    16ec:	e59fce30 	ldr	r12, [pc, #3632]	; 2524 <_svfprintf_r+0x152c>
    16f0:	e3140020 	tst	r4, #32
    16f4:	e58d3024 	str	r3, [sp, #36]	; 0x24
    16f8:	e58dc06c 	str	r12, [sp, #108]	; 0x6c
    16fc:	0a0000b3 	beq	19d0 <_svfprintf_r+0x9d8>
    1700:	e59dc048 	ldr	r12, [sp, #72]	; 0x48
    1704:	e28c3007 	add	r3, r12, #7
    1708:	e3c33007 	bic	r3, r3, #7
    170c:	e2834008 	add	r4, r3, #8
    1710:	e58d4048 	str	r4, [sp, #72]	; 0x48
    1714:	e8930030 	ldm	r3, {r4, r5}
    1718:	e59dc020 	ldr	r12, [sp, #32]
    171c:	e31c0001 	tst	r12, #1
    1720:	1a000326 	bne	23c0 <_svfprintf_r+0x13c8>
    1724:	e1940005 	orrs	r0, r4, r5
    1728:	03a02000 	moveq	r2, #0
    172c:	13a02001 	movne	r2, #1
    1730:	e3a03002 	mov	r3, #2
    1734:	e3a01000 	mov	r1, #0
    1738:	e5cd107b 	strb	r1, [sp, #123]	; 0x7b
    173c:	eaffff3b 	b	1430 <_svfprintf_r+0x438>
    1740:	e58d3024 	str	r3, [sp, #36]	; 0x24
    1744:	e59d3048 	ldr	r3, [sp, #72]	; 0x48
    1748:	e59d4048 	ldr	r4, [sp, #72]	; 0x48
    174c:	e5933000 	ldr	r3, [r3]
    1750:	e3a0c001 	mov	r12, #1
    1754:	e2844004 	add	r4, r4, #4
    1758:	e5cd30a8 	strb	r3, [sp, #168]	; 0xa8
    175c:	e3a03000 	mov	r3, #0
    1760:	e58dc028 	str	r12, [sp, #40]	; 0x28
    1764:	e58d4048 	str	r4, [sp, #72]	; 0x48
    1768:	e5cd307b 	strb	r3, [sp, #123]	; 0x7b
    176c:	e58dc038 	str	r12, [sp, #56]	; 0x38
    1770:	e28d80a8 	add	r8, sp, #168	; 0xa8
    1774:	e3a03000 	mov	r3, #0
    1778:	e58d3044 	str	r3, [sp, #68]	; 0x44
    177c:	e58d3054 	str	r3, [sp, #84]	; 0x54
    1780:	eaffff5e 	b	1500 <_svfprintf_r+0x508>
    1784:	e59d4020 	ldr	r4, [sp, #32]
    1788:	e3140020 	tst	r4, #32
    178c:	e58d3024 	str	r3, [sp, #36]	; 0x24
    1790:	1affff17 	bne	13f4 <_svfprintf_r+0x3fc>
    1794:	e59d4020 	ldr	r4, [sp, #32]
    1798:	e3140010 	tst	r4, #16
    179c:	0a0003fb 	beq	2790 <_svfprintf_r+0x1798>
    17a0:	e59dc048 	ldr	r12, [sp, #72]	; 0x48
    17a4:	e59c3000 	ldr	r3, [r12]
    17a8:	e1a05fc3 	asr	r5, r3, #31
    17ac:	e1a02003 	mov	r2, r3
    17b0:	e1a04003 	mov	r4, r3
    17b4:	e1a03005 	mov	r3, r5
    17b8:	e28cc004 	add	r12, r12, #4
    17bc:	e3520000 	cmp	r2, #0
    17c0:	e2d30000 	sbcs	r0, r3, #0
    17c4:	e58dc048 	str	r12, [sp, #72]	; 0x48
    17c8:	aaffff14 	bge	1420 <_svfprintf_r+0x428>
    17cc:	e2744000 	rsbs	r4, r4, #0
    17d0:	e2e55000 	rsc	r5, r5, #0
    17d4:	e3a0302d 	mov	r3, #45	; 0x2d
    17d8:	e1942005 	orrs	r2, r4, r5
    17dc:	e5cd307b 	strb	r3, [sp, #123]	; 0x7b
    17e0:	03a02000 	moveq	r2, #0
    17e4:	13a02001 	movne	r2, #1
    17e8:	e3a03001 	mov	r3, #1
    17ec:	eaffff0f 	b	1430 <_svfprintf_r+0x438>
    17f0:	e59dc020 	ldr	r12, [sp, #32]
    17f4:	e38cc040 	orr	r12, r12, #64	; 0x40
    17f8:	e58dc020 	str	r12, [sp, #32]
    17fc:	e5d37000 	ldrb	r7, [r3]
    1800:	eafffe4c 	b	1138 <_svfprintf_r+0x140>
    1804:	e5d37000 	ldrb	r7, [r3]
    1808:	e357006c 	cmp	r7, #108	; 0x6c
    180c:	059d4020 	ldreq	r4, [sp, #32]
    1810:	159dc020 	ldrne	r12, [sp, #32]
    1814:	e1a00003 	mov	r0, r3
    1818:	03844020 	orreq	r4, r4, #32
    181c:	138cc010 	orrne	r12, r12, #16
    1820:	02833001 	addeq	r3, r3, #1
    1824:	058d4020 	streq	r4, [sp, #32]
    1828:	05d07001 	ldrbeq	r7, [r0, #1]
    182c:	158dc020 	strne	r12, [sp, #32]
    1830:	eafffe40 	b	1138 <_svfprintf_r+0x140>
    1834:	e59d4020 	ldr	r4, [sp, #32]
    1838:	e3140020 	tst	r4, #32
    183c:	e58d3024 	str	r3, [sp, #36]	; 0x24
    1840:	0a0003b5 	beq	271c <_svfprintf_r+0x1724>
    1844:	e59dc048 	ldr	r12, [sp, #72]	; 0x48
    1848:	e59d202c 	ldr	r2, [sp, #44]	; 0x2c
    184c:	e59c3000 	ldr	r3, [r12]
    1850:	e1a01fc2 	asr	r1, r2, #31
    1854:	e28cc004 	add	r12, r12, #4
    1858:	e5832000 	str	r2, [r3]
    185c:	e5831004 	str	r1, [r3, #4]
    1860:	e58dc048 	str	r12, [sp, #72]	; 0x48
    1864:	eafffe07 	b	1088 <_svfprintf_r+0x90>
    1868:	e59dc020 	ldr	r12, [sp, #32]
    186c:	e58d3024 	str	r3, [sp, #36]	; 0x24
    1870:	e21c3020 	ands	r3, r12, #32
    1874:	0a000089 	beq	1aa0 <_svfprintf_r+0xaa8>
    1878:	e59d4048 	ldr	r4, [sp, #72]	; 0x48
    187c:	e2843007 	add	r3, r4, #7
    1880:	e3c33007 	bic	r3, r3, #7
    1884:	e8930030 	ldm	r3, {r4, r5}
    1888:	e2833008 	add	r3, r3, #8
    188c:	e194c005 	orrs	r12, r4, r5
    1890:	e58d3048 	str	r3, [sp, #72]	; 0x48
    1894:	03a02000 	moveq	r2, #0
    1898:	13a02001 	movne	r2, #1
    189c:	e3a03000 	mov	r3, #0
    18a0:	eaffffa3 	b	1734 <_svfprintf_r+0x73c>
    18a4:	e58d3024 	str	r3, [sp, #36]	; 0x24
    18a8:	e59d3048 	ldr	r3, [sp, #72]	; 0x48
    18ac:	e283c004 	add	r12, r3, #4
    18b0:	e58dc048 	str	r12, [sp, #72]	; 0x48
    18b4:	e59dc020 	ldr	r12, [sp, #32]
    18b8:	e5932000 	ldr	r2, [r3]
    18bc:	e38cc002 	orr	r12, r12, #2
    18c0:	e58dc020 	str	r12, [sp, #32]
    18c4:	e3a05000 	mov	r5, #0
    18c8:	e59fcc58 	ldr	r12, [pc, #3160]	; 2528 <_svfprintf_r+0x1530>
    18cc:	e3a03030 	mov	r3, #48	; 0x30
    18d0:	e3a07078 	mov	r7, #120	; 0x78
    18d4:	e1a04002 	mov	r4, r2
    18d8:	e0522005 	subs	r2, r2, r5
    18dc:	e5cd307c 	strb	r3, [sp, #124]	; 0x7c
    18e0:	e5cd707d 	strb	r7, [sp, #125]	; 0x7d
    18e4:	13a02001 	movne	r2, #1
    18e8:	e58dc06c 	str	r12, [sp, #108]	; 0x6c
    18ec:	e3a03002 	mov	r3, #2
    18f0:	eaffff8f 	b	1734 <_svfprintf_r+0x73c>
    18f4:	e59d4020 	ldr	r4, [sp, #32]
    18f8:	e3844020 	orr	r4, r4, #32
    18fc:	e58d4020 	str	r4, [sp, #32]
    1900:	e5d37000 	ldrb	r7, [r3]
    1904:	eafffe0b 	b	1138 <_svfprintf_r+0x140>
    1908:	e3a04000 	mov	r4, #0
    190c:	e59dc048 	ldr	r12, [sp, #72]	; 0x48
    1910:	e5cd407b 	strb	r4, [sp, #123]	; 0x7b
    1914:	e59c8000 	ldr	r8, [r12]
    1918:	e1580004 	cmp	r8, r4
    191c:	e58d3024 	str	r3, [sp, #36]	; 0x24
    1920:	e28c5004 	add	r5, r12, #4
    1924:	0a0004e8 	beq	2ccc <_svfprintf_r+0x1cd4>
    1928:	e3560000 	cmp	r6, #0
    192c:	e1a00008 	mov	r0, r8
    1930:	ba0004cb 	blt	2c64 <_svfprintf_r+0x1c6c>
    1934:	e1a01004 	mov	r1, r4
    1938:	e1a02006 	mov	r2, r6
    193c:	eb000e67 	bl	52e0 <memchr>
    1940:	e3500000 	cmp	r0, #0
    1944:	0a000515 	beq	2da0 <_svfprintf_r+0x1da8>
    1948:	e0680000 	rsb	r0, r8, r0
    194c:	e1500006 	cmp	r0, r6
    1950:	e58d0038 	str	r0, [sp, #56]	; 0x38
    1954:	e58d4044 	str	r4, [sp, #68]	; 0x44
    1958:	da0003dd 	ble	28d4 <_svfprintf_r+0x18dc>
    195c:	e59dc044 	ldr	r12, [sp, #68]	; 0x44
    1960:	e1c64fc6 	bic	r4, r6, r6, asr #31
    1964:	e58d4028 	str	r4, [sp, #40]	; 0x28
    1968:	e5dd307b 	ldrb	r3, [sp, #123]	; 0x7b
    196c:	e58d5048 	str	r5, [sp, #72]	; 0x48
    1970:	e58d6038 	str	r6, [sp, #56]	; 0x38
    1974:	e58dc054 	str	r12, [sp, #84]	; 0x54
    1978:	eafffedb 	b	14ec <_svfprintf_r+0x4f4>
    197c:	e59dc020 	ldr	r12, [sp, #32]
    1980:	e31c0020 	tst	r12, #32
    1984:	e58d3024 	str	r3, [sp, #36]	; 0x24
    1988:	0a000057 	beq	1aec <_svfprintf_r+0xaf4>
    198c:	e59d4048 	ldr	r4, [sp, #72]	; 0x48
    1990:	e2843007 	add	r3, r4, #7
    1994:	e3c33007 	bic	r3, r3, #7
    1998:	e8930030 	ldm	r3, {r4, r5}
    199c:	e2833008 	add	r3, r3, #8
    19a0:	e194c005 	orrs	r12, r4, r5
    19a4:	e58d3048 	str	r3, [sp, #72]	; 0x48
    19a8:	03a02000 	moveq	r2, #0
    19ac:	13a02001 	movne	r2, #1
    19b0:	e3a03001 	mov	r3, #1
    19b4:	eaffff5e 	b	1734 <_svfprintf_r+0x73c>
    19b8:	e59f4b68 	ldr	r4, [pc, #2920]	; 2528 <_svfprintf_r+0x1530>
    19bc:	e58d406c 	str	r4, [sp, #108]	; 0x6c
    19c0:	e59d4020 	ldr	r4, [sp, #32]
    19c4:	e3140020 	tst	r4, #32
    19c8:	e58d3024 	str	r3, [sp, #36]	; 0x24
    19cc:	1affff4b 	bne	1700 <_svfprintf_r+0x708>
    19d0:	e59dc020 	ldr	r12, [sp, #32]
    19d4:	e31c0010 	tst	r12, #16
    19d8:	1a00028b 	bne	240c <_svfprintf_r+0x1414>
    19dc:	e59d4020 	ldr	r4, [sp, #32]
    19e0:	e3140040 	tst	r4, #64	; 0x40
    19e4:	0a000288 	beq	240c <_svfprintf_r+0x1414>
    19e8:	e59dc048 	ldr	r12, [sp, #72]	; 0x48
    19ec:	e1dc30b0 	ldrh	r3, [r12]
    19f0:	e28cc004 	add	r12, r12, #4
    19f4:	e1a04003 	mov	r4, r3
    19f8:	e3a05000 	mov	r5, #0
    19fc:	e58dc048 	str	r12, [sp, #72]	; 0x48
    1a00:	eaffff44 	b	1718 <_svfprintf_r+0x720>
    1a04:	e3570000 	cmp	r7, #0
    1a08:	e58d3024 	str	r3, [sp, #36]	; 0x24
    1a0c:	0afffe38 	beq	12f4 <_svfprintf_r+0x2fc>
    1a10:	e3a04001 	mov	r4, #1
    1a14:	e3a03000 	mov	r3, #0
    1a18:	e58d4028 	str	r4, [sp, #40]	; 0x28
    1a1c:	e5cd70a8 	strb	r7, [sp, #168]	; 0xa8
    1a20:	e5cd307b 	strb	r3, [sp, #123]	; 0x7b
    1a24:	e58d4038 	str	r4, [sp, #56]	; 0x38
    1a28:	e28d80a8 	add	r8, sp, #168	; 0xa8
    1a2c:	eaffff50 	b	1774 <_svfprintf_r+0x77c>
    1a30:	e5dd007b 	ldrb	r0, [sp, #123]	; 0x7b
    1a34:	e3500000 	cmp	r0, #0
    1a38:	1a000335 	bne	2714 <_svfprintf_r+0x171c>
    1a3c:	e5cd107b 	strb	r1, [sp, #123]	; 0x7b
    1a40:	e5d37000 	ldrb	r7, [r3]
    1a44:	eafffdbb 	b	1138 <_svfprintf_r+0x140>
    1a48:	e59d4020 	ldr	r4, [sp, #32]
    1a4c:	e3844001 	orr	r4, r4, #1
    1a50:	e58d4020 	str	r4, [sp, #32]
    1a54:	e5d37000 	ldrb	r7, [r3]
    1a58:	eafffdb6 	b	1138 <_svfprintf_r+0x140>
    1a5c:	e59dc048 	ldr	r12, [sp, #72]	; 0x48
    1a60:	e59cc000 	ldr	r12, [r12]
    1a64:	e59d4048 	ldr	r4, [sp, #72]	; 0x48
    1a68:	e35c0000 	cmp	r12, #0
    1a6c:	e58dc034 	str	r12, [sp, #52]	; 0x34
    1a70:	e2840004 	add	r0, r4, #4
    1a74:	bafffe0d 	blt	12b0 <_svfprintf_r+0x2b8>
    1a78:	e5d37000 	ldrb	r7, [r3]
    1a7c:	e58d0048 	str	r0, [sp, #72]	; 0x48
    1a80:	eafffdac 	b	1138 <_svfprintf_r+0x140>
    1a84:	e59d4020 	ldr	r4, [sp, #32]
    1a88:	e3844010 	orr	r4, r4, #16
    1a8c:	e58d4020 	str	r4, [sp, #32]
    1a90:	e59dc020 	ldr	r12, [sp, #32]
    1a94:	e58d3024 	str	r3, [sp, #36]	; 0x24
    1a98:	e21c3020 	ands	r3, r12, #32
    1a9c:	1affff75 	bne	1878 <_svfprintf_r+0x880>
    1aa0:	e59d4020 	ldr	r4, [sp, #32]
    1aa4:	e2141010 	ands	r1, r4, #16
    1aa8:	0a00032b 	beq	275c <_svfprintf_r+0x1764>
    1aac:	e59dc048 	ldr	r12, [sp, #72]	; 0x48
    1ab0:	e59c2000 	ldr	r2, [r12]
    1ab4:	e3a05000 	mov	r5, #0
    1ab8:	e1a04002 	mov	r4, r2
    1abc:	e28cc004 	add	r12, r12, #4
    1ac0:	e0522005 	subs	r2, r2, r5
    1ac4:	13a02001 	movne	r2, #1
    1ac8:	e58dc048 	str	r12, [sp, #72]	; 0x48
    1acc:	eaffff18 	b	1734 <_svfprintf_r+0x73c>
    1ad0:	e59d4020 	ldr	r4, [sp, #32]
    1ad4:	e3844010 	orr	r4, r4, #16
    1ad8:	e58d4020 	str	r4, [sp, #32]
    1adc:	e59dc020 	ldr	r12, [sp, #32]
    1ae0:	e31c0020 	tst	r12, #32
    1ae4:	e58d3024 	str	r3, [sp, #36]	; 0x24
    1ae8:	1affffa7 	bne	198c <_svfprintf_r+0x994>
    1aec:	e59d4020 	ldr	r4, [sp, #32]
    1af0:	e3140010 	tst	r4, #16
    1af4:	0a000312 	beq	2744 <_svfprintf_r+0x174c>
    1af8:	e59dc048 	ldr	r12, [sp, #72]	; 0x48
    1afc:	e59c2000 	ldr	r2, [r12]
    1b00:	e3a05000 	mov	r5, #0
    1b04:	e1a04002 	mov	r4, r2
    1b08:	e28cc004 	add	r12, r12, #4
    1b0c:	e0522005 	subs	r2, r2, r5
    1b10:	13a02001 	movne	r2, #1
    1b14:	e58dc048 	str	r12, [sp, #72]	; 0x48
    1b18:	e3a03001 	mov	r3, #1
    1b1c:	eaffff04 	b	1734 <_svfprintf_r+0x73c>
    1b20:	e59d50a4 	ldr	r5, [sp, #164]	; 0xa4
    1b24:	e5dd307b 	ldrb	r3, [sp, #123]	; 0x7b
    1b28:	e3530000 	cmp	r3, #0
    1b2c:	0a00000b 	beq	1b60 <_svfprintf_r+0xb68>
    1b30:	e59d40a0 	ldr	r4, [sp, #160]	; 0xa0
    1b34:	e28d307b 	add	r3, sp, #123	; 0x7b
    1b38:	e2844001 	add	r4, r4, #1
    1b3c:	e58a3000 	str	r3, [r10]
    1b40:	e2855001 	add	r5, r5, #1
    1b44:	e3540007 	cmp	r4, #7
    1b48:	e3a03001 	mov	r3, #1
    1b4c:	e58a3004 	str	r3, [r10, #4]
    1b50:	e58d50a4 	str	r5, [sp, #164]	; 0xa4
    1b54:	e58d40a0 	str	r4, [sp, #160]	; 0xa0
    1b58:	d28aa008 	addle	r10, r10, #8
    1b5c:	ca00018d 	bgt	2198 <_svfprintf_r+0x11a0>
    1b60:	e59d303c 	ldr	r3, [sp, #60]	; 0x3c
    1b64:	e3530000 	cmp	r3, #0
    1b68:	0a00000b 	beq	1b9c <_svfprintf_r+0xba4>
    1b6c:	e59d40a0 	ldr	r4, [sp, #160]	; 0xa0
    1b70:	e28d307c 	add	r3, sp, #124	; 0x7c
    1b74:	e2844001 	add	r4, r4, #1
    1b78:	e58a3000 	str	r3, [r10]
    1b7c:	e2855002 	add	r5, r5, #2
    1b80:	e3540007 	cmp	r4, #7
    1b84:	e3a03002 	mov	r3, #2
    1b88:	e58a3004 	str	r3, [r10, #4]
    1b8c:	e58d50a4 	str	r5, [sp, #164]	; 0xa4
    1b90:	e58d40a0 	str	r4, [sp, #160]	; 0xa0
    1b94:	d28aa008 	addle	r10, r10, #8
    1b98:	ca000187 	bgt	21bc <_svfprintf_r+0x11c4>
    1b9c:	e59d4050 	ldr	r4, [sp, #80]	; 0x50
    1ba0:	e3540080 	cmp	r4, #128	; 0x80
    1ba4:	0a0000e5 	beq	1f40 <_svfprintf_r+0xf48>
    1ba8:	e59dc044 	ldr	r12, [sp, #68]	; 0x44
    1bac:	e59d3038 	ldr	r3, [sp, #56]	; 0x38
    1bb0:	e063900c 	rsb	r9, r3, r12
    1bb4:	e3590000 	cmp	r9, #0
    1bb8:	da000036 	ble	1c98 <_svfprintf_r+0xca0>
    1bbc:	e3590010 	cmp	r9, #16
    1bc0:	e59d40a0 	ldr	r4, [sp, #160]	; 0xa0
    1bc4:	e59f696c 	ldr	r6, [pc, #2412]	; 2538 <_svfprintf_r+0x1540>
    1bc8:	da000022 	ble	1c58 <_svfprintf_r+0xc60>
    1bcc:	e58d7044 	str	r7, [sp, #68]	; 0x44
    1bd0:	e58d803c 	str	r8, [sp, #60]	; 0x3c
    1bd4:	e3a0b010 	mov	r11, #16
    1bd8:	e1a08009 	mov	r8, r9
    1bdc:	e59d7030 	ldr	r7, [sp, #48]	; 0x30
    1be0:	e1a09006 	mov	r9, r6
    1be4:	e59d6040 	ldr	r6, [sp, #64]	; 0x40
    1be8:	ea000002 	b	1bf8 <_svfprintf_r+0xc00>
    1bec:	e2488010 	sub	r8, r8, #16
    1bf0:	e3580010 	cmp	r8, #16
    1bf4:	da000013 	ble	1c48 <_svfprintf_r+0xc50>
    1bf8:	e2844001 	add	r4, r4, #1
    1bfc:	e3540007 	cmp	r4, #7
    1c00:	e2855010 	add	r5, r5, #16
    1c04:	e88a0a00 	stm	r10, {r9, r11}
    1c08:	e58d50a4 	str	r5, [sp, #164]	; 0xa4
    1c0c:	e58d40a0 	str	r4, [sp, #160]	; 0xa0
    1c10:	d28aa008 	addle	r10, r10, #8
    1c14:	dafffff4 	ble	1bec <_svfprintf_r+0xbf4>
    1c18:	e1a00006 	mov	r0, r6
    1c1c:	e1a01007 	mov	r1, r7
    1c20:	e28d209c 	add	r2, sp, #156	; 0x9c
    1c24:	eb001290 	bl	666c <__ssprint_r>
    1c28:	e3500000 	cmp	r0, #0
    1c2c:	1afffdb6 	bne	130c <_svfprintf_r+0x314>
    1c30:	e2488010 	sub	r8, r8, #16
    1c34:	e28d40a0 	add	r4, sp, #160	; 0xa0
    1c38:	e3580010 	cmp	r8, #16
    1c3c:	e8940030 	ldm	r4, {r4, r5}
    1c40:	e28da0d0 	add	r10, sp, #208	; 0xd0
    1c44:	caffffeb 	bgt	1bf8 <_svfprintf_r+0xc00>
    1c48:	e1a06009 	mov	r6, r9
    1c4c:	e59d7044 	ldr	r7, [sp, #68]	; 0x44
    1c50:	e1a09008 	mov	r9, r8
    1c54:	e59d803c 	ldr	r8, [sp, #60]	; 0x3c
    1c58:	e2844001 	add	r4, r4, #1
    1c5c:	e0855009 	add	r5, r5, r9
    1c60:	e3540007 	cmp	r4, #7
    1c64:	e88a0240 	stm	r10, {r6, r9}
    1c68:	e58d50a4 	str	r5, [sp, #164]	; 0xa4
    1c6c:	e58d40a0 	str	r4, [sp, #160]	; 0xa0
    1c70:	d28aa008 	addle	r10, r10, #8
    1c74:	da000007 	ble	1c98 <_svfprintf_r+0xca0>
    1c78:	e59d0040 	ldr	r0, [sp, #64]	; 0x40
    1c7c:	e59d1030 	ldr	r1, [sp, #48]	; 0x30
    1c80:	e28d209c 	add	r2, sp, #156	; 0x9c
    1c84:	eb001278 	bl	666c <__ssprint_r>
    1c88:	e3500000 	cmp	r0, #0
    1c8c:	1afffd9e 	bne	130c <_svfprintf_r+0x314>
    1c90:	e59d50a4 	ldr	r5, [sp, #164]	; 0xa4
    1c94:	e28da0d0 	add	r10, sp, #208	; 0xd0
    1c98:	e59d4020 	ldr	r4, [sp, #32]
    1c9c:	e3140c01 	tst	r4, #256	; 0x100
    1ca0:	1a00004d 	bne	1ddc <_svfprintf_r+0xde4>
    1ca4:	e59d40a0 	ldr	r4, [sp, #160]	; 0xa0
    1ca8:	e59dc038 	ldr	r12, [sp, #56]	; 0x38
    1cac:	e2844001 	add	r4, r4, #1
    1cb0:	e085500c 	add	r5, r5, r12
    1cb4:	e3540007 	cmp	r4, #7
    1cb8:	e88a1100 	stm	r10, {r8, r12}
    1cbc:	e58d50a4 	str	r5, [sp, #164]	; 0xa4
    1cc0:	e58d40a0 	str	r4, [sp, #160]	; 0xa0
    1cc4:	ca000110 	bgt	210c <_svfprintf_r+0x1114>
    1cc8:	e28aa008 	add	r10, r10, #8
    1ccc:	e59d4020 	ldr	r4, [sp, #32]
    1cd0:	e3140004 	tst	r4, #4
    1cd4:	0a000033 	beq	1da8 <_svfprintf_r+0xdb0>
    1cd8:	e59dc034 	ldr	r12, [sp, #52]	; 0x34
    1cdc:	e59d4028 	ldr	r4, [sp, #40]	; 0x28
    1ce0:	e064600c 	rsb	r6, r4, r12
    1ce4:	e3560000 	cmp	r6, #0
    1ce8:	da00002e 	ble	1da8 <_svfprintf_r+0xdb0>
    1cec:	e3560010 	cmp	r6, #16
    1cf0:	e59d40a0 	ldr	r4, [sp, #160]	; 0xa0
    1cf4:	e59f981c 	ldr	r9, [pc, #2076]	; 2518 <_svfprintf_r+0x1520>
    1cf8:	da00001b 	ble	1d6c <_svfprintf_r+0xd74>
    1cfc:	e3a07010 	mov	r7, #16
    1d00:	e59d8040 	ldr	r8, [sp, #64]	; 0x40
    1d04:	e59db030 	ldr	r11, [sp, #48]	; 0x30
    1d08:	ea000002 	b	1d18 <_svfprintf_r+0xd20>
    1d0c:	e2466010 	sub	r6, r6, #16
    1d10:	e3560010 	cmp	r6, #16
    1d14:	da000014 	ble	1d6c <_svfprintf_r+0xd74>
    1d18:	e2844001 	add	r4, r4, #1
    1d1c:	e3540007 	cmp	r4, #7
    1d20:	e2855010 	add	r5, r5, #16
    1d24:	e58a9000 	str	r9, [r10]
    1d28:	e58a7004 	str	r7, [r10, #4]
    1d2c:	e58d50a4 	str	r5, [sp, #164]	; 0xa4
    1d30:	e58d40a0 	str	r4, [sp, #160]	; 0xa0
    1d34:	d28aa008 	addle	r10, r10, #8
    1d38:	dafffff3 	ble	1d0c <_svfprintf_r+0xd14>
    1d3c:	e1a00008 	mov	r0, r8
    1d40:	e1a0100b 	mov	r1, r11
    1d44:	e28d209c 	add	r2, sp, #156	; 0x9c
    1d48:	eb001247 	bl	666c <__ssprint_r>
    1d4c:	e3500000 	cmp	r0, #0
    1d50:	1afffd6d 	bne	130c <_svfprintf_r+0x314>
    1d54:	e2466010 	sub	r6, r6, #16
    1d58:	e28d40a0 	add	r4, sp, #160	; 0xa0
    1d5c:	e3560010 	cmp	r6, #16
    1d60:	e8940030 	ldm	r4, {r4, r5}
    1d64:	e28da0d0 	add	r10, sp, #208	; 0xd0
    1d68:	caffffea 	bgt	1d18 <_svfprintf_r+0xd20>
    1d6c:	e2844001 	add	r4, r4, #1
    1d70:	e0865005 	add	r5, r6, r5
    1d74:	e3540007 	cmp	r4, #7
    1d78:	e58a9000 	str	r9, [r10]
    1d7c:	e58a6004 	str	r6, [r10, #4]
    1d80:	e58d50a4 	str	r5, [sp, #164]	; 0xa4
    1d84:	e58d40a0 	str	r4, [sp, #160]	; 0xa0
    1d88:	da000006 	ble	1da8 <_svfprintf_r+0xdb0>
    1d8c:	e59d0040 	ldr	r0, [sp, #64]	; 0x40
    1d90:	e59d1030 	ldr	r1, [sp, #48]	; 0x30
    1d94:	e28d209c 	add	r2, sp, #156	; 0x9c
    1d98:	eb001233 	bl	666c <__ssprint_r>
    1d9c:	e3500000 	cmp	r0, #0
    1da0:	1afffd59 	bne	130c <_svfprintf_r+0x314>
    1da4:	e59d50a4 	ldr	r5, [sp, #164]	; 0xa4
    1da8:	e28d4028 	add	r4, sp, #40	; 0x28
    1dac:	e8941010 	ldm	r4, {r4, r12}
    1db0:	e59d0034 	ldr	r0, [sp, #52]	; 0x34
    1db4:	e1540000 	cmp	r4, r0
    1db8:	a08cc004 	addge	r12, r12, r4
    1dbc:	b08cc000 	addlt	r12, r12, r0
    1dc0:	e3550000 	cmp	r5, #0
    1dc4:	e58dc02c 	str	r12, [sp, #44]	; 0x2c
    1dc8:	1a0000d8 	bne	2130 <_svfprintf_r+0x1138>
    1dcc:	e3a03000 	mov	r3, #0
    1dd0:	e58d30a0 	str	r3, [sp, #160]	; 0xa0
    1dd4:	e28da0d0 	add	r10, sp, #208	; 0xd0
    1dd8:	eafffcaa 	b	1088 <_svfprintf_r+0x90>
    1ddc:	e3570065 	cmp	r7, #101	; 0x65
    1de0:	da000093 	ble	2034 <_svfprintf_r+0x103c>
    1de4:	e28d1060 	add	r1, sp, #96	; 0x60
    1de8:	e8910003 	ldm	r1, {r0, r1}
    1dec:	e3a02000 	mov	r2, #0
    1df0:	e3a03000 	mov	r3, #0
    1df4:	eb001ca8 	bl	909c <__aeabi_dcmpeq>
    1df8:	e3500000 	cmp	r0, #0
    1dfc:	0a0000f7 	beq	21e0 <_svfprintf_r+0x11e8>
    1e00:	e59d40a0 	ldr	r4, [sp, #160]	; 0xa0
    1e04:	e59f3728 	ldr	r3, [pc, #1832]	; 2534 <_svfprintf_r+0x153c>
    1e08:	e2844001 	add	r4, r4, #1
    1e0c:	e58a3000 	str	r3, [r10]
    1e10:	e2855001 	add	r5, r5, #1
    1e14:	e3540007 	cmp	r4, #7
    1e18:	e3a03001 	mov	r3, #1
    1e1c:	e58a3004 	str	r3, [r10, #4]
    1e20:	e58d50a4 	str	r5, [sp, #164]	; 0xa4
    1e24:	e58d40a0 	str	r4, [sp, #160]	; 0xa0
    1e28:	d28aa008 	addle	r10, r10, #8
    1e2c:	ca00025d 	bgt	27a8 <_svfprintf_r+0x17b0>
    1e30:	e59d3080 	ldr	r3, [sp, #128]	; 0x80
    1e34:	e59d404c 	ldr	r4, [sp, #76]	; 0x4c
    1e38:	e1530004 	cmp	r3, r4
    1e3c:	ba000002 	blt	1e4c <_svfprintf_r+0xe54>
    1e40:	e59dc020 	ldr	r12, [sp, #32]
    1e44:	e31c0001 	tst	r12, #1
    1e48:	0affff9f 	beq	1ccc <_svfprintf_r+0xcd4>
    1e4c:	e59dc05c 	ldr	r12, [sp, #92]	; 0x5c
    1e50:	e59d40a0 	ldr	r4, [sp, #160]	; 0xa0
    1e54:	e085500c 	add	r5, r5, r12
    1e58:	e59dc058 	ldr	r12, [sp, #88]	; 0x58
    1e5c:	e2844001 	add	r4, r4, #1
    1e60:	e58ac000 	str	r12, [r10]
    1e64:	e59dc05c 	ldr	r12, [sp, #92]	; 0x5c
    1e68:	e3540007 	cmp	r4, #7
    1e6c:	e58ac004 	str	r12, [r10, #4]
    1e70:	e58d50a4 	str	r5, [sp, #164]	; 0xa4
    1e74:	e58d40a0 	str	r4, [sp, #160]	; 0xa0
    1e78:	d28aa008 	addle	r10, r10, #8
    1e7c:	ca00031c 	bgt	2af4 <_svfprintf_r+0x1afc>
    1e80:	e59d404c 	ldr	r4, [sp, #76]	; 0x4c
    1e84:	e2447001 	sub	r7, r4, #1
    1e88:	e3570000 	cmp	r7, #0
    1e8c:	daffff8e 	ble	1ccc <_svfprintf_r+0xcd4>
    1e90:	e3570010 	cmp	r7, #16
    1e94:	e59d40a0 	ldr	r4, [sp, #160]	; 0xa0
    1e98:	e59f6698 	ldr	r6, [pc, #1688]	; 2538 <_svfprintf_r+0x1540>
    1e9c:	da000152 	ble	23ec <_svfprintf_r+0x13f4>
    1ea0:	e3a08010 	mov	r8, #16
    1ea4:	e59d9040 	ldr	r9, [sp, #64]	; 0x40
    1ea8:	e59db030 	ldr	r11, [sp, #48]	; 0x30
    1eac:	ea000002 	b	1ebc <_svfprintf_r+0xec4>
    1eb0:	e2477010 	sub	r7, r7, #16
    1eb4:	e3570010 	cmp	r7, #16
    1eb8:	da00014b 	ble	23ec <_svfprintf_r+0x13f4>
    1ebc:	e2844001 	add	r4, r4, #1
    1ec0:	e3540007 	cmp	r4, #7
    1ec4:	e2855010 	add	r5, r5, #16
    1ec8:	e88a0140 	stm	r10, {r6, r8}
    1ecc:	e58d50a4 	str	r5, [sp, #164]	; 0xa4
    1ed0:	e58d40a0 	str	r4, [sp, #160]	; 0xa0
    1ed4:	d28aa008 	addle	r10, r10, #8
    1ed8:	dafffff4 	ble	1eb0 <_svfprintf_r+0xeb8>
    1edc:	e1a00009 	mov	r0, r9
    1ee0:	e1a0100b 	mov	r1, r11
    1ee4:	e28d209c 	add	r2, sp, #156	; 0x9c
    1ee8:	eb0011df 	bl	666c <__ssprint_r>
    1eec:	e3500000 	cmp	r0, #0
    1ef0:	1afffd05 	bne	130c <_svfprintf_r+0x314>
    1ef4:	e28d40a0 	add	r4, sp, #160	; 0xa0
    1ef8:	e8940030 	ldm	r4, {r4, r5}
    1efc:	e28da0d0 	add	r10, sp, #208	; 0xd0
    1f00:	eaffffea 	b	1eb0 <_svfprintf_r+0xeb8>
    1f04:	e3530000 	cmp	r3, #0
    1f08:	158d2038 	strne	r2, [sp, #56]	; 0x38
    1f0c:	128d80d0 	addne	r8, sp, #208	; 0xd0
    1f10:	1afffd6d 	bne	14cc <_svfprintf_r+0x4d4>
    1f14:	e59d4020 	ldr	r4, [sp, #32]
    1f18:	e3140001 	tst	r4, #1
    1f1c:	128d8e11 	addne	r8, sp, #272	; 0x110
    1f20:	13a03030 	movne	r3, #48	; 0x30
    1f24:	159dc01c 	ldrne	r12, [sp, #28]
    1f28:	15683041 	strbne	r3, [r8, #-65]!	; 0xffffffbf
    1f2c:	1068c00c 	rsbne	r12, r8, r12
    1f30:	158dc038 	strne	r12, [sp, #56]	; 0x38
    1f34:	058d3038 	streq	r3, [sp, #56]	; 0x38
    1f38:	028d80d0 	addeq	r8, sp, #208	; 0xd0
    1f3c:	eafffd62 	b	14cc <_svfprintf_r+0x4d4>
    1f40:	e59dc034 	ldr	r12, [sp, #52]	; 0x34
    1f44:	e59d4028 	ldr	r4, [sp, #40]	; 0x28
    1f48:	e064900c 	rsb	r9, r4, r12
    1f4c:	e3590000 	cmp	r9, #0
    1f50:	daffff14 	ble	1ba8 <_svfprintf_r+0xbb0>
    1f54:	e3590010 	cmp	r9, #16
    1f58:	e59d40a0 	ldr	r4, [sp, #160]	; 0xa0
    1f5c:	e59f65d4 	ldr	r6, [pc, #1492]	; 2538 <_svfprintf_r+0x1540>
    1f60:	da000022 	ble	1ff0 <_svfprintf_r+0xff8>
    1f64:	e58d703c 	str	r7, [sp, #60]	; 0x3c
    1f68:	e58d8050 	str	r8, [sp, #80]	; 0x50
    1f6c:	e3a0b010 	mov	r11, #16
    1f70:	e1a08009 	mov	r8, r9
    1f74:	e59d7030 	ldr	r7, [sp, #48]	; 0x30
    1f78:	e1a09006 	mov	r9, r6
    1f7c:	e59d6040 	ldr	r6, [sp, #64]	; 0x40
    1f80:	ea000002 	b	1f90 <_svfprintf_r+0xf98>
    1f84:	e2488010 	sub	r8, r8, #16
    1f88:	e3580010 	cmp	r8, #16
    1f8c:	da000013 	ble	1fe0 <_svfprintf_r+0xfe8>
    1f90:	e2844001 	add	r4, r4, #1
    1f94:	e3540007 	cmp	r4, #7
    1f98:	e2855010 	add	r5, r5, #16
    1f9c:	e88a0a00 	stm	r10, {r9, r11}
    1fa0:	e58d50a4 	str	r5, [sp, #164]	; 0xa4
    1fa4:	e58d40a0 	str	r4, [sp, #160]	; 0xa0
    1fa8:	d28aa008 	addle	r10, r10, #8
    1fac:	dafffff4 	ble	1f84 <_svfprintf_r+0xf8c>
    1fb0:	e1a00006 	mov	r0, r6
    1fb4:	e1a01007 	mov	r1, r7
    1fb8:	e28d209c 	add	r2, sp, #156	; 0x9c
    1fbc:	eb0011aa 	bl	666c <__ssprint_r>
    1fc0:	e3500000 	cmp	r0, #0
    1fc4:	1afffcd0 	bne	130c <_svfprintf_r+0x314>
    1fc8:	e2488010 	sub	r8, r8, #16
    1fcc:	e28d40a0 	add	r4, sp, #160	; 0xa0
    1fd0:	e3580010 	cmp	r8, #16
    1fd4:	e8940030 	ldm	r4, {r4, r5}
    1fd8:	e28da0d0 	add	r10, sp, #208	; 0xd0
    1fdc:	caffffeb 	bgt	1f90 <_svfprintf_r+0xf98>
    1fe0:	e1a06009 	mov	r6, r9
    1fe4:	e59d703c 	ldr	r7, [sp, #60]	; 0x3c
    1fe8:	e1a09008 	mov	r9, r8
    1fec:	e59d8050 	ldr	r8, [sp, #80]	; 0x50
    1ff0:	e2844001 	add	r4, r4, #1
    1ff4:	e0855009 	add	r5, r5, r9
    1ff8:	e3540007 	cmp	r4, #7
    1ffc:	e88a0240 	stm	r10, {r6, r9}
    2000:	e58d50a4 	str	r5, [sp, #164]	; 0xa4
    2004:	e58d40a0 	str	r4, [sp, #160]	; 0xa0
    2008:	d28aa008 	addle	r10, r10, #8
    200c:	dafffee5 	ble	1ba8 <_svfprintf_r+0xbb0>
    2010:	e59d0040 	ldr	r0, [sp, #64]	; 0x40
    2014:	e59d1030 	ldr	r1, [sp, #48]	; 0x30
    2018:	e28d209c 	add	r2, sp, #156	; 0x9c
    201c:	eb001192 	bl	666c <__ssprint_r>
    2020:	e3500000 	cmp	r0, #0
    2024:	1afffcb8 	bne	130c <_svfprintf_r+0x314>
    2028:	e59d50a4 	ldr	r5, [sp, #164]	; 0xa4
    202c:	e28da0d0 	add	r10, sp, #208	; 0xd0
    2030:	eafffedc 	b	1ba8 <_svfprintf_r+0xbb0>
    2034:	e59d404c 	ldr	r4, [sp, #76]	; 0x4c
    2038:	e3540001 	cmp	r4, #1
    203c:	e59d40a0 	ldr	r4, [sp, #160]	; 0xa0
    2040:	e2855001 	add	r5, r5, #1
    2044:	e2844001 	add	r4, r4, #1
    2048:	da000169 	ble	25f4 <_svfprintf_r+0x15fc>
    204c:	e3540007 	cmp	r4, #7
    2050:	e3a03001 	mov	r3, #1
    2054:	e58a8000 	str	r8, [r10]
    2058:	e58a3004 	str	r3, [r10, #4]
    205c:	e58d50a4 	str	r5, [sp, #164]	; 0xa4
    2060:	e58d40a0 	str	r4, [sp, #160]	; 0xa0
    2064:	d28aa008 	addle	r10, r10, #8
    2068:	ca00016c 	bgt	2620 <_svfprintf_r+0x1628>
    206c:	e59dc05c 	ldr	r12, [sp, #92]	; 0x5c
    2070:	e085500c 	add	r5, r5, r12
    2074:	e59dc058 	ldr	r12, [sp, #88]	; 0x58
    2078:	e2844001 	add	r4, r4, #1
    207c:	e58ac000 	str	r12, [r10]
    2080:	e59dc05c 	ldr	r12, [sp, #92]	; 0x5c
    2084:	e3540007 	cmp	r4, #7
    2088:	e58ac004 	str	r12, [r10, #4]
    208c:	e58d50a4 	str	r5, [sp, #164]	; 0xa4
    2090:	e58d40a0 	str	r4, [sp, #160]	; 0xa0
    2094:	d28aa008 	addle	r10, r10, #8
    2098:	ca00016a 	bgt	2648 <_svfprintf_r+0x1650>
    209c:	e28d1060 	add	r1, sp, #96	; 0x60
    20a0:	e8910003 	ldm	r1, {r0, r1}
    20a4:	e3a02000 	mov	r2, #0
    20a8:	e3a03000 	mov	r3, #0
    20ac:	eb001bfa 	bl	909c <__aeabi_dcmpeq>
    20b0:	e3500000 	cmp	r0, #0
    20b4:	e59dc04c 	ldr	r12, [sp, #76]	; 0x4c
    20b8:	1a00008e 	bne	22f8 <_svfprintf_r+0x1300>
    20bc:	e24c3001 	sub	r3, r12, #1
    20c0:	e2844001 	add	r4, r4, #1
    20c4:	e2888001 	add	r8, r8, #1
    20c8:	e0855003 	add	r5, r5, r3
    20cc:	e3540007 	cmp	r4, #7
    20d0:	e58a8000 	str	r8, [r10]
    20d4:	e58a3004 	str	r3, [r10, #4]
    20d8:	e58d50a4 	str	r5, [sp, #164]	; 0xa4
    20dc:	e58d40a0 	str	r4, [sp, #160]	; 0xa0
    20e0:	ca0000ac 	bgt	2398 <_svfprintf_r+0x13a0>
    20e4:	e28aa008 	add	r10, r10, #8
    20e8:	e59dc068 	ldr	r12, [sp, #104]	; 0x68
    20ec:	e2844001 	add	r4, r4, #1
    20f0:	e085500c 	add	r5, r5, r12
    20f4:	e28d308c 	add	r3, sp, #140	; 0x8c
    20f8:	e3540007 	cmp	r4, #7
    20fc:	e88a1008 	stm	r10, {r3, r12}
    2100:	e58d50a4 	str	r5, [sp, #164]	; 0xa4
    2104:	e58d40a0 	str	r4, [sp, #160]	; 0xa0
    2108:	dafffeee 	ble	1cc8 <_svfprintf_r+0xcd0>
    210c:	e59d0040 	ldr	r0, [sp, #64]	; 0x40
    2110:	e59d1030 	ldr	r1, [sp, #48]	; 0x30
    2114:	e28d209c 	add	r2, sp, #156	; 0x9c
    2118:	eb001153 	bl	666c <__ssprint_r>
    211c:	e3500000 	cmp	r0, #0
    2120:	1afffc79 	bne	130c <_svfprintf_r+0x314>
    2124:	e28da0d0 	add	r10, sp, #208	; 0xd0
    2128:	e59d50a4 	ldr	r5, [sp, #164]	; 0xa4
    212c:	eafffee6 	b	1ccc <_svfprintf_r+0xcd4>
    2130:	e59d0040 	ldr	r0, [sp, #64]	; 0x40
    2134:	e59d1030 	ldr	r1, [sp, #48]	; 0x30
    2138:	e28d209c 	add	r2, sp, #156	; 0x9c
    213c:	eb00114a 	bl	666c <__ssprint_r>
    2140:	e3500000 	cmp	r0, #0
    2144:	0affff20 	beq	1dcc <_svfprintf_r+0xdd4>
    2148:	eafffc6f 	b	130c <_svfprintf_r+0x314>
    214c:	e59d906c 	ldr	r9, [sp, #108]	; 0x6c
    2150:	e3a0000f 	mov	r0, #15
    2154:	e1a08224 	lsr	r8, r4, #4
    2158:	e0042000 	and	r2, r4, r0
    215c:	e1888e05 	orr	r8, r8, r5, lsl #28
    2160:	e1a0b225 	lsr	r11, r5, #4
    2164:	e0892002 	add	r2, r9, r2
    2168:	e1a04008 	mov	r4, r8
    216c:	e5d23000 	ldrb	r3, [r2]
    2170:	e1a0500b 	mov	r5, r11
    2174:	e1a0800c 	mov	r8, r12
    2178:	e194c005 	orrs	r12, r4, r5
    217c:	e5c83000 	strb	r3, [r8]
    2180:	e248c001 	sub	r12, r8, #1
    2184:	1afffff2 	bne	2154 <_svfprintf_r+0x115c>
    2188:	e59d301c 	ldr	r3, [sp, #28]
    218c:	e0683003 	rsb	r3, r8, r3
    2190:	e58d3038 	str	r3, [sp, #56]	; 0x38
    2194:	eafffccc 	b	14cc <_svfprintf_r+0x4d4>
    2198:	e59d0040 	ldr	r0, [sp, #64]	; 0x40
    219c:	e59d1030 	ldr	r1, [sp, #48]	; 0x30
    21a0:	e28d209c 	add	r2, sp, #156	; 0x9c
    21a4:	eb001130 	bl	666c <__ssprint_r>
    21a8:	e3500000 	cmp	r0, #0
    21ac:	1afffc56 	bne	130c <_svfprintf_r+0x314>
    21b0:	e59d50a4 	ldr	r5, [sp, #164]	; 0xa4
    21b4:	e28da0d0 	add	r10, sp, #208	; 0xd0
    21b8:	eafffe68 	b	1b60 <_svfprintf_r+0xb68>
    21bc:	e59d0040 	ldr	r0, [sp, #64]	; 0x40
    21c0:	e59d1030 	ldr	r1, [sp, #48]	; 0x30
    21c4:	e28d209c 	add	r2, sp, #156	; 0x9c
    21c8:	eb001127 	bl	666c <__ssprint_r>
    21cc:	e3500000 	cmp	r0, #0
    21d0:	1afffc4d 	bne	130c <_svfprintf_r+0x314>
    21d4:	e59d50a4 	ldr	r5, [sp, #164]	; 0xa4
    21d8:	e28da0d0 	add	r10, sp, #208	; 0xd0
    21dc:	eafffe6e 	b	1b9c <_svfprintf_r+0xba4>
    21e0:	e59d7080 	ldr	r7, [sp, #128]	; 0x80
    21e4:	e3570000 	cmp	r7, #0
    21e8:	da000177 	ble	27cc <_svfprintf_r+0x17d4>
    21ec:	e59d604c 	ldr	r6, [sp, #76]	; 0x4c
    21f0:	e59d4054 	ldr	r4, [sp, #84]	; 0x54
    21f4:	e59dc04c 	ldr	r12, [sp, #76]	; 0x4c
    21f8:	e1560004 	cmp	r6, r4
    21fc:	a1a06004 	movge	r6, r4
    2200:	e3560000 	cmp	r6, #0
    2204:	e088b00c 	add	r11, r8, r12
    2208:	da000009 	ble	2234 <_svfprintf_r+0x123c>
    220c:	e59d40a0 	ldr	r4, [sp, #160]	; 0xa0
    2210:	e2844001 	add	r4, r4, #1
    2214:	e0855006 	add	r5, r5, r6
    2218:	e3540007 	cmp	r4, #7
    221c:	e58a8000 	str	r8, [r10]
    2220:	e58a6004 	str	r6, [r10, #4]
    2224:	e58d50a4 	str	r5, [sp, #164]	; 0xa4
    2228:	e58d40a0 	str	r4, [sp, #160]	; 0xa0
    222c:	d28aa008 	addle	r10, r10, #8
    2230:	ca000290 	bgt	2c78 <_svfprintf_r+0x1c80>
    2234:	e59d4054 	ldr	r4, [sp, #84]	; 0x54
    2238:	e1c66fc6 	bic	r6, r6, r6, asr #31
    223c:	e0667004 	rsb	r7, r6, r4
    2240:	e3570000 	cmp	r7, #0
    2244:	da00008c 	ble	247c <_svfprintf_r+0x1484>
    2248:	e3570010 	cmp	r7, #16
    224c:	e59d40a0 	ldr	r4, [sp, #160]	; 0xa0
    2250:	e59f62e0 	ldr	r6, [pc, #736]	; 2538 <_svfprintf_r+0x1540>
    2254:	da000078 	ble	243c <_svfprintf_r+0x1444>
    2258:	e58d8038 	str	r8, [sp, #56]	; 0x38
    225c:	e58db044 	str	r11, [sp, #68]	; 0x44
    2260:	e1a08007 	mov	r8, r7
    2264:	e1a0b006 	mov	r11, r6
    2268:	e3a09010 	mov	r9, #16
    226c:	e59d7030 	ldr	r7, [sp, #48]	; 0x30
    2270:	e59d6040 	ldr	r6, [sp, #64]	; 0x40
    2274:	ea000002 	b	2284 <_svfprintf_r+0x128c>
    2278:	e2488010 	sub	r8, r8, #16
    227c:	e3580010 	cmp	r8, #16
    2280:	da000069 	ble	242c <_svfprintf_r+0x1434>
    2284:	e2844001 	add	r4, r4, #1
    2288:	e3540007 	cmp	r4, #7
    228c:	e2855010 	add	r5, r5, #16
    2290:	e58ab000 	str	r11, [r10]
    2294:	e58a9004 	str	r9, [r10, #4]
    2298:	e58d50a4 	str	r5, [sp, #164]	; 0xa4
    229c:	e58d40a0 	str	r4, [sp, #160]	; 0xa0
    22a0:	d28aa008 	addle	r10, r10, #8
    22a4:	dafffff3 	ble	2278 <_svfprintf_r+0x1280>
    22a8:	e1a00006 	mov	r0, r6
    22ac:	e1a01007 	mov	r1, r7
    22b0:	e28d209c 	add	r2, sp, #156	; 0x9c
    22b4:	eb0010ec 	bl	666c <__ssprint_r>
    22b8:	e3500000 	cmp	r0, #0
    22bc:	1afffc12 	bne	130c <_svfprintf_r+0x314>
    22c0:	e28d40a0 	add	r4, sp, #160	; 0xa0
    22c4:	e8940030 	ldm	r4, {r4, r5}
    22c8:	e28da0d0 	add	r10, sp, #208	; 0xd0
    22cc:	eaffffe9 	b	2278 <_svfprintf_r+0x1280>
    22d0:	e3550000 	cmp	r5, #0
    22d4:	03540009 	cmpeq	r4, #9
    22d8:	8a0000e4 	bhi	2670 <_svfprintf_r+0x1678>
    22dc:	e28d8e11 	add	r8, sp, #272	; 0x110
    22e0:	e2844030 	add	r4, r4, #48	; 0x30
    22e4:	e5684041 	strb	r4, [r8, #-65]!	; 0xffffffbf
    22e8:	e59dc01c 	ldr	r12, [sp, #28]
    22ec:	e068c00c 	rsb	r12, r8, r12
    22f0:	e58dc038 	str	r12, [sp, #56]	; 0x38
    22f4:	eafffc74 	b	14cc <_svfprintf_r+0x4d4>
    22f8:	e24c7001 	sub	r7, r12, #1
    22fc:	e3570000 	cmp	r7, #0
    2300:	daffff78 	ble	20e8 <_svfprintf_r+0x10f0>
    2304:	e3570010 	cmp	r7, #16
    2308:	e59f6228 	ldr	r6, [pc, #552]	; 2538 <_svfprintf_r+0x1540>
    230c:	da00001a 	ble	237c <_svfprintf_r+0x1384>
    2310:	e3a08010 	mov	r8, #16
    2314:	e59d9040 	ldr	r9, [sp, #64]	; 0x40
    2318:	e59db030 	ldr	r11, [sp, #48]	; 0x30
    231c:	ea000002 	b	232c <_svfprintf_r+0x1334>
    2320:	e2477010 	sub	r7, r7, #16
    2324:	e3570010 	cmp	r7, #16
    2328:	da000013 	ble	237c <_svfprintf_r+0x1384>
    232c:	e2844001 	add	r4, r4, #1
    2330:	e3540007 	cmp	r4, #7
    2334:	e2855010 	add	r5, r5, #16
    2338:	e88a0140 	stm	r10, {r6, r8}
    233c:	e58d50a4 	str	r5, [sp, #164]	; 0xa4
    2340:	e58d40a0 	str	r4, [sp, #160]	; 0xa0
    2344:	d28aa008 	addle	r10, r10, #8
    2348:	dafffff4 	ble	2320 <_svfprintf_r+0x1328>
    234c:	e1a00009 	mov	r0, r9
    2350:	e1a0100b 	mov	r1, r11
    2354:	e28d209c 	add	r2, sp, #156	; 0x9c
    2358:	eb0010c3 	bl	666c <__ssprint_r>
    235c:	e3500000 	cmp	r0, #0
    2360:	1afffbe9 	bne	130c <_svfprintf_r+0x314>
    2364:	e2477010 	sub	r7, r7, #16
    2368:	e28d40a0 	add	r4, sp, #160	; 0xa0
    236c:	e3570010 	cmp	r7, #16
    2370:	e8940030 	ldm	r4, {r4, r5}
    2374:	e28da0d0 	add	r10, sp, #208	; 0xd0
    2378:	caffffeb 	bgt	232c <_svfprintf_r+0x1334>
    237c:	e2844001 	add	r4, r4, #1
    2380:	e0855007 	add	r5, r5, r7
    2384:	e3540007 	cmp	r4, #7
    2388:	e88a00c0 	stm	r10, {r6, r7}
    238c:	e58d50a4 	str	r5, [sp, #164]	; 0xa4
    2390:	e58d40a0 	str	r4, [sp, #160]	; 0xa0
    2394:	daffff52 	ble	20e4 <_svfprintf_r+0x10ec>
    2398:	e59d0040 	ldr	r0, [sp, #64]	; 0x40
    239c:	e59d1030 	ldr	r1, [sp, #48]	; 0x30
    23a0:	e28d209c 	add	r2, sp, #156	; 0x9c
    23a4:	eb0010b0 	bl	666c <__ssprint_r>
    23a8:	e3500000 	cmp	r0, #0
    23ac:	1afffbd6 	bne	130c <_svfprintf_r+0x314>
    23b0:	e28d40a0 	add	r4, sp, #160	; 0xa0
    23b4:	e28da0d0 	add	r10, sp, #208	; 0xd0
    23b8:	e8940030 	ldm	r4, {r4, r5}
    23bc:	eaffff49 	b	20e8 <_svfprintf_r+0x10f0>
    23c0:	e1941005 	orrs	r1, r4, r5
    23c4:	159dc020 	ldrne	r12, [sp, #32]
    23c8:	13a03030 	movne	r3, #48	; 0x30
    23cc:	138cc002 	orrne	r12, r12, #2
    23d0:	15cd307c 	strbne	r3, [sp, #124]	; 0x7c
    23d4:	15cd707d 	strbne	r7, [sp, #125]	; 0x7d
    23d8:	158dc020 	strne	r12, [sp, #32]
    23dc:	13a02001 	movne	r2, #1
    23e0:	03a02000 	moveq	r2, #0
    23e4:	e3a03002 	mov	r3, #2
    23e8:	eafffcd1 	b	1734 <_svfprintf_r+0x73c>
    23ec:	e2844001 	add	r4, r4, #1
    23f0:	e0855007 	add	r5, r5, r7
    23f4:	e3540007 	cmp	r4, #7
    23f8:	e88a00c0 	stm	r10, {r6, r7}
    23fc:	e58d50a4 	str	r5, [sp, #164]	; 0xa4
    2400:	e58d40a0 	str	r4, [sp, #160]	; 0xa0
    2404:	dafffe2f 	ble	1cc8 <_svfprintf_r+0xcd0>
    2408:	eaffff3f 	b	210c <_svfprintf_r+0x1114>
    240c:	e59d4048 	ldr	r4, [sp, #72]	; 0x48
    2410:	e59dc048 	ldr	r12, [sp, #72]	; 0x48
    2414:	e5943000 	ldr	r3, [r4]
    2418:	e28cc004 	add	r12, r12, #4
    241c:	e1a04003 	mov	r4, r3
    2420:	e3a05000 	mov	r5, #0
    2424:	e58dc048 	str	r12, [sp, #72]	; 0x48
    2428:	eafffcba 	b	1718 <_svfprintf_r+0x720>
    242c:	e1a07008 	mov	r7, r8
    2430:	e1a0600b 	mov	r6, r11
    2434:	e59d8038 	ldr	r8, [sp, #56]	; 0x38
    2438:	e59db044 	ldr	r11, [sp, #68]	; 0x44
    243c:	e2844001 	add	r4, r4, #1
    2440:	e0855007 	add	r5, r5, r7
    2444:	e3540007 	cmp	r4, #7
    2448:	e88a00c0 	stm	r10, {r6, r7}
    244c:	e58d50a4 	str	r5, [sp, #164]	; 0xa4
    2450:	e58d40a0 	str	r4, [sp, #160]	; 0xa0
    2454:	d28aa008 	addle	r10, r10, #8
    2458:	da000007 	ble	247c <_svfprintf_r+0x1484>
    245c:	e59d0040 	ldr	r0, [sp, #64]	; 0x40
    2460:	e59d1030 	ldr	r1, [sp, #48]	; 0x30
    2464:	e28d209c 	add	r2, sp, #156	; 0x9c
    2468:	eb00107f 	bl	666c <__ssprint_r>
    246c:	e3500000 	cmp	r0, #0
    2470:	1afffba5 	bne	130c <_svfprintf_r+0x314>
    2474:	e59d50a4 	ldr	r5, [sp, #164]	; 0xa4
    2478:	e28da0d0 	add	r10, sp, #208	; 0xd0
    247c:	e59d3080 	ldr	r3, [sp, #128]	; 0x80
    2480:	e59dc04c 	ldr	r12, [sp, #76]	; 0x4c
    2484:	e59d4054 	ldr	r4, [sp, #84]	; 0x54
    2488:	e153000c 	cmp	r3, r12
    248c:	e0888004 	add	r8, r8, r4
    2490:	ba000040 	blt	2598 <_svfprintf_r+0x15a0>
    2494:	e59dc020 	ldr	r12, [sp, #32]
    2498:	e31c0001 	tst	r12, #1
    249c:	1a00003d 	bne	2598 <_svfprintf_r+0x15a0>
    24a0:	e59d404c 	ldr	r4, [sp, #76]	; 0x4c
    24a4:	e068600b 	rsb	r6, r8, r11
    24a8:	e0633004 	rsb	r3, r3, r4
    24ac:	e1530006 	cmp	r3, r6
    24b0:	b1a06003 	movlt	r6, r3
    24b4:	a1a06006 	movge	r6, r6
    24b8:	e3560000 	cmp	r6, #0
    24bc:	da000009 	ble	24e8 <_svfprintf_r+0x14f0>
    24c0:	e59d40a0 	ldr	r4, [sp, #160]	; 0xa0
    24c4:	e2844001 	add	r4, r4, #1
    24c8:	e0855006 	add	r5, r5, r6
    24cc:	e3540007 	cmp	r4, #7
    24d0:	e58a8000 	str	r8, [r10]
    24d4:	e58a6004 	str	r6, [r10, #4]
    24d8:	e58d50a4 	str	r5, [sp, #164]	; 0xa4
    24dc:	e58d40a0 	str	r4, [sp, #160]	; 0xa0
    24e0:	d28aa008 	addle	r10, r10, #8
    24e4:	ca0001ec 	bgt	2c9c <_svfprintf_r+0x1ca4>
    24e8:	e1c66fc6 	bic	r6, r6, r6, asr #31
    24ec:	e0667003 	rsb	r7, r6, r3
    24f0:	e3570000 	cmp	r7, #0
    24f4:	dafffdf4 	ble	1ccc <_svfprintf_r+0xcd4>
    24f8:	e3570010 	cmp	r7, #16
    24fc:	e59d40a0 	ldr	r4, [sp, #160]	; 0xa0
    2500:	e59f6030 	ldr	r6, [pc, #48]	; 2538 <_svfprintf_r+0x1540>
    2504:	daffffb8 	ble	23ec <_svfprintf_r+0x13f4>
    2508:	e3a08010 	mov	r8, #16
    250c:	e59d9040 	ldr	r9, [sp, #64]	; 0x40
    2510:	e59db030 	ldr	r11, [sp, #48]	; 0x30
    2514:	ea00000d 	b	2550 <_svfprintf_r+0x1558>
    2518:	00009e40 	.word	0x00009e40
    251c:	00009e60 	.word	0x00009e60
    2520:	00009e64 	.word	0x00009e64
    2524:	00009e70 	.word	0x00009e70
    2528:	00009e84 	.word	0x00009e84
    252c:	00009e68 	.word	0x00009e68
    2530:	00009e6c 	.word	0x00009e6c
    2534:	00009ea0 	.word	0x00009ea0
    2538:	00009e50 	.word	0x00009e50
    253c:	00009e98 	.word	0x00009e98
    2540:	66666667 	.word	0x66666667
    2544:	e2477010 	sub	r7, r7, #16
    2548:	e3570010 	cmp	r7, #16
    254c:	daffffa6 	ble	23ec <_svfprintf_r+0x13f4>
    2550:	e2844001 	add	r4, r4, #1
    2554:	e3540007 	cmp	r4, #7
    2558:	e2855010 	add	r5, r5, #16
    255c:	e88a0140 	stm	r10, {r6, r8}
    2560:	e58d50a4 	str	r5, [sp, #164]	; 0xa4
    2564:	e58d40a0 	str	r4, [sp, #160]	; 0xa0
    2568:	d28aa008 	addle	r10, r10, #8
    256c:	dafffff4 	ble	2544 <_svfprintf_r+0x154c>
    2570:	e1a00009 	mov	r0, r9
    2574:	e1a0100b 	mov	r1, r11
    2578:	e28d209c 	add	r2, sp, #156	; 0x9c
    257c:	eb00103a 	bl	666c <__ssprint_r>
    2580:	e3500000 	cmp	r0, #0
    2584:	1afffb60 	bne	130c <_svfprintf_r+0x314>
    2588:	e28d40a0 	add	r4, sp, #160	; 0xa0
    258c:	e8940030 	ldm	r4, {r4, r5}
    2590:	e28da0d0 	add	r10, sp, #208	; 0xd0
    2594:	eaffffea 	b	2544 <_svfprintf_r+0x154c>
    2598:	e59dc05c 	ldr	r12, [sp, #92]	; 0x5c
    259c:	e59d40a0 	ldr	r4, [sp, #160]	; 0xa0
    25a0:	e085500c 	add	r5, r5, r12
    25a4:	e59dc058 	ldr	r12, [sp, #88]	; 0x58
    25a8:	e2844001 	add	r4, r4, #1
    25ac:	e58ac000 	str	r12, [r10]
    25b0:	e59dc05c 	ldr	r12, [sp, #92]	; 0x5c
    25b4:	e3540007 	cmp	r4, #7
    25b8:	e58ac004 	str	r12, [r10, #4]
    25bc:	e58d50a4 	str	r5, [sp, #164]	; 0xa4
    25c0:	e58d40a0 	str	r4, [sp, #160]	; 0xa0
    25c4:	d28aa008 	addle	r10, r10, #8
    25c8:	daffffb4 	ble	24a0 <_svfprintf_r+0x14a8>
    25cc:	e59d0040 	ldr	r0, [sp, #64]	; 0x40
    25d0:	e59d1030 	ldr	r1, [sp, #48]	; 0x30
    25d4:	e28d209c 	add	r2, sp, #156	; 0x9c
    25d8:	eb001023 	bl	666c <__ssprint_r>
    25dc:	e3500000 	cmp	r0, #0
    25e0:	1afffb49 	bne	130c <_svfprintf_r+0x314>
    25e4:	e59d3080 	ldr	r3, [sp, #128]	; 0x80
    25e8:	e59d50a4 	ldr	r5, [sp, #164]	; 0xa4
    25ec:	e28da0d0 	add	r10, sp, #208	; 0xd0
    25f0:	eaffffaa 	b	24a0 <_svfprintf_r+0x14a8>
    25f4:	e59dc020 	ldr	r12, [sp, #32]
    25f8:	e31c0001 	tst	r12, #1
    25fc:	1afffe92 	bne	204c <_svfprintf_r+0x1054>
    2600:	e3a03001 	mov	r3, #1
    2604:	e3540007 	cmp	r4, #7
    2608:	e58a8000 	str	r8, [r10]
    260c:	e58a3004 	str	r3, [r10, #4]
    2610:	e58d50a4 	str	r5, [sp, #164]	; 0xa4
    2614:	e58d40a0 	str	r4, [sp, #160]	; 0xa0
    2618:	dafffeb1 	ble	20e4 <_svfprintf_r+0x10ec>
    261c:	eaffff5d 	b	2398 <_svfprintf_r+0x13a0>
    2620:	e59d0040 	ldr	r0, [sp, #64]	; 0x40
    2624:	e59d1030 	ldr	r1, [sp, #48]	; 0x30
    2628:	e28d209c 	add	r2, sp, #156	; 0x9c
    262c:	eb00100e 	bl	666c <__ssprint_r>
    2630:	e3500000 	cmp	r0, #0
    2634:	1afffb34 	bne	130c <_svfprintf_r+0x314>
    2638:	e28d40a0 	add	r4, sp, #160	; 0xa0
    263c:	e8940030 	ldm	r4, {r4, r5}
    2640:	e28da0d0 	add	r10, sp, #208	; 0xd0
    2644:	eafffe88 	b	206c <_svfprintf_r+0x1074>
    2648:	e59d0040 	ldr	r0, [sp, #64]	; 0x40
    264c:	e59d1030 	ldr	r1, [sp, #48]	; 0x30
    2650:	e28d209c 	add	r2, sp, #156	; 0x9c
    2654:	eb001004 	bl	666c <__ssprint_r>
    2658:	e3500000 	cmp	r0, #0
    265c:	1afffb2a 	bne	130c <_svfprintf_r+0x314>
    2660:	e28d40a0 	add	r4, sp, #160	; 0xa0
    2664:	e8940030 	ldm	r4, {r4, r5}
    2668:	e28da0d0 	add	r10, sp, #208	; 0xd0
    266c:	eafffe8a 	b	209c <_svfprintf_r+0x10a4>
    2670:	e28d90cf 	add	r9, sp, #207	; 0xcf
    2674:	e1a00004 	mov	r0, r4
    2678:	e1a01005 	mov	r1, r5
    267c:	e3a0200a 	mov	r2, #10
    2680:	e3a03000 	mov	r3, #0
    2684:	eb001ab9 	bl	9170 <__aeabi_uldivmod>
    2688:	e2822030 	add	r2, r2, #48	; 0x30
    268c:	e5c92000 	strb	r2, [r9]
    2690:	e1a00004 	mov	r0, r4
    2694:	e1a01005 	mov	r1, r5
    2698:	e3a0200a 	mov	r2, #10
    269c:	e3a03000 	mov	r3, #0
    26a0:	eb001ab2 	bl	9170 <__aeabi_uldivmod>
    26a4:	e1a04000 	mov	r4, r0
    26a8:	e1a05001 	mov	r5, r1
    26ac:	e1940005 	orrs	r0, r4, r5
    26b0:	e1a08009 	mov	r8, r9
    26b4:	e2499001 	sub	r9, r9, #1
    26b8:	1affffed 	bne	2674 <_svfprintf_r+0x167c>
    26bc:	e59d301c 	ldr	r3, [sp, #28]
    26c0:	e0683003 	rsb	r3, r8, r3
    26c4:	e58d3038 	str	r3, [sp, #56]	; 0x38
    26c8:	eafffb7f 	b	14cc <_svfprintf_r+0x4d4>
    26cc:	eb000f17 	bl	6330 <__fpclassifyd>
    26d0:	e3500000 	cmp	r0, #0
    26d4:	1a0000a5 	bne	2970 <_svfprintf_r+0x1978>
    26d8:	e3a0c003 	mov	r12, #3
    26dc:	e58d0044 	str	r0, [sp, #68]	; 0x44
    26e0:	e59d4020 	ldr	r4, [sp, #32]
    26e4:	e58dc028 	str	r12, [sp, #40]	; 0x28
    26e8:	e51f01c4 	ldr	r0, [pc, #-452]	; 252c <_svfprintf_r+0x1534>
    26ec:	e58dc038 	str	r12, [sp, #56]	; 0x38
    26f0:	e59dc044 	ldr	r12, [sp, #68]	; 0x44
    26f4:	e3570047 	cmp	r7, #71	; 0x47
    26f8:	e3c44080 	bic	r4, r4, #128	; 0x80
    26fc:	e51f81d4 	ldr	r8, [pc, #-468]	; 2530 <_svfprintf_r+0x1538>
    2700:	e58d4020 	str	r4, [sp, #32]
    2704:	d1a08000 	movle	r8, r0
    2708:	e5dd307b 	ldrb	r3, [sp, #123]	; 0x7b
    270c:	e58dc054 	str	r12, [sp, #84]	; 0x54
    2710:	eafffb75 	b	14ec <_svfprintf_r+0x4f4>
    2714:	e5d37000 	ldrb	r7, [r3]
    2718:	eafffa86 	b	1138 <_svfprintf_r+0x140>
    271c:	e59d4020 	ldr	r4, [sp, #32]
    2720:	e3140010 	tst	r4, #16
    2724:	0a0000fb 	beq	2b18 <_svfprintf_r+0x1b20>
    2728:	e59dc048 	ldr	r12, [sp, #72]	; 0x48
    272c:	e59d402c 	ldr	r4, [sp, #44]	; 0x2c
    2730:	e59c3000 	ldr	r3, [r12]
    2734:	e28cc004 	add	r12, r12, #4
    2738:	e58dc048 	str	r12, [sp, #72]	; 0x48
    273c:	e5834000 	str	r4, [r3]
    2740:	eafffa50 	b	1088 <_svfprintf_r+0x90>
    2744:	e59d4020 	ldr	r4, [sp, #32]
    2748:	e3140040 	tst	r4, #64	; 0x40
    274c:	0a000072 	beq	291c <_svfprintf_r+0x1924>
    2750:	e59dc048 	ldr	r12, [sp, #72]	; 0x48
    2754:	e1dc20b0 	ldrh	r2, [r12]
    2758:	eafffce8 	b	1b00 <_svfprintf_r+0xb08>
    275c:	e59d4020 	ldr	r4, [sp, #32]
    2760:	e2143040 	ands	r3, r4, #64	; 0x40
    2764:	0a000077 	beq	2948 <_svfprintf_r+0x1950>
    2768:	e59dc048 	ldr	r12, [sp, #72]	; 0x48
    276c:	e1dc20b0 	ldrh	r2, [r12]
    2770:	e3a05000 	mov	r5, #0
    2774:	e1a04002 	mov	r4, r2
    2778:	e28cc004 	add	r12, r12, #4
    277c:	e0522005 	subs	r2, r2, r5
    2780:	13a02001 	movne	r2, #1
    2784:	e58dc048 	str	r12, [sp, #72]	; 0x48
    2788:	e1a03001 	mov	r3, r1
    278c:	eafffbe8 	b	1734 <_svfprintf_r+0x73c>
    2790:	e59d4020 	ldr	r4, [sp, #32]
    2794:	e3140040 	tst	r4, #64	; 0x40
    2798:	0a000055 	beq	28f4 <_svfprintf_r+0x18fc>
    279c:	e59dc048 	ldr	r12, [sp, #72]	; 0x48
    27a0:	e1dc30f0 	ldrsh	r3, [r12]
    27a4:	eafffbff 	b	17a8 <_svfprintf_r+0x7b0>
    27a8:	e59d0040 	ldr	r0, [sp, #64]	; 0x40
    27ac:	e59d1030 	ldr	r1, [sp, #48]	; 0x30
    27b0:	e28d209c 	add	r2, sp, #156	; 0x9c
    27b4:	eb000fac 	bl	666c <__ssprint_r>
    27b8:	e3500000 	cmp	r0, #0
    27bc:	1afffad2 	bne	130c <_svfprintf_r+0x314>
    27c0:	e59d50a4 	ldr	r5, [sp, #164]	; 0xa4
    27c4:	e28da0d0 	add	r10, sp, #208	; 0xd0
    27c8:	eafffd98 	b	1e30 <_svfprintf_r+0xe38>
    27cc:	e59d40a0 	ldr	r4, [sp, #160]	; 0xa0
    27d0:	e51f32a4 	ldr	r3, [pc, #-676]	; 2534 <_svfprintf_r+0x153c>
    27d4:	e2844001 	add	r4, r4, #1
    27d8:	e58a3000 	str	r3, [r10]
    27dc:	e2855001 	add	r5, r5, #1
    27e0:	e3540007 	cmp	r4, #7
    27e4:	e3a03001 	mov	r3, #1
    27e8:	e58a3004 	str	r3, [r10, #4]
    27ec:	e58d50a4 	str	r5, [sp, #164]	; 0xa4
    27f0:	e58d40a0 	str	r4, [sp, #160]	; 0xa0
    27f4:	d28aa008 	addle	r10, r10, #8
    27f8:	ca0000ee 	bgt	2bb8 <_svfprintf_r+0x1bc0>
    27fc:	e3570000 	cmp	r7, #0
    2800:	1a000005 	bne	281c <_svfprintf_r+0x1824>
    2804:	e59dc04c 	ldr	r12, [sp, #76]	; 0x4c
    2808:	e35c0000 	cmp	r12, #0
    280c:	1a000002 	bne	281c <_svfprintf_r+0x1824>
    2810:	e59d4020 	ldr	r4, [sp, #32]
    2814:	e3140001 	tst	r4, #1
    2818:	0afffd2b 	beq	1ccc <_svfprintf_r+0xcd4>
    281c:	e59dc05c 	ldr	r12, [sp, #92]	; 0x5c
    2820:	e59d40a0 	ldr	r4, [sp, #160]	; 0xa0
    2824:	e085500c 	add	r5, r5, r12
    2828:	e59dc058 	ldr	r12, [sp, #88]	; 0x58
    282c:	e2844001 	add	r4, r4, #1
    2830:	e58ac000 	str	r12, [r10]
    2834:	e59dc05c 	ldr	r12, [sp, #92]	; 0x5c
    2838:	e3540007 	cmp	r4, #7
    283c:	e58ac004 	str	r12, [r10, #4]
    2840:	e58d50a4 	str	r5, [sp, #164]	; 0xa4
    2844:	e58d40a0 	str	r4, [sp, #160]	; 0xa0
    2848:	d28aa008 	addle	r10, r10, #8
    284c:	ca0000f9 	bgt	2c38 <_svfprintf_r+0x1c40>
    2850:	e2677000 	rsb	r7, r7, #0
    2854:	e3570000 	cmp	r7, #0
    2858:	da0000f3 	ble	2c2c <_svfprintf_r+0x1c34>
    285c:	e3570010 	cmp	r7, #16
    2860:	e51f6330 	ldr	r6, [pc, #-816]	; 2538 <_svfprintf_r+0x1540>
    2864:	da0000df 	ble	2be8 <_svfprintf_r+0x1bf0>
    2868:	e58d8038 	str	r8, [sp, #56]	; 0x38
    286c:	e3a09010 	mov	r9, #16
    2870:	e1a08006 	mov	r8, r6
    2874:	e59db040 	ldr	r11, [sp, #64]	; 0x40
    2878:	e59d6030 	ldr	r6, [sp, #48]	; 0x30
    287c:	ea000002 	b	288c <_svfprintf_r+0x1894>
    2880:	e2477010 	sub	r7, r7, #16
    2884:	e3570010 	cmp	r7, #16
    2888:	da0000d4 	ble	2be0 <_svfprintf_r+0x1be8>
    288c:	e2844001 	add	r4, r4, #1
    2890:	e3540007 	cmp	r4, #7
    2894:	e2855010 	add	r5, r5, #16
    2898:	e88a0300 	stm	r10, {r8, r9}
    289c:	e58d50a4 	str	r5, [sp, #164]	; 0xa4
    28a0:	e58d40a0 	str	r4, [sp, #160]	; 0xa0
    28a4:	d28aa008 	addle	r10, r10, #8
    28a8:	dafffff4 	ble	2880 <_svfprintf_r+0x1888>
    28ac:	e1a0000b 	mov	r0, r11
    28b0:	e1a01006 	mov	r1, r6
    28b4:	e28d209c 	add	r2, sp, #156	; 0x9c
    28b8:	eb000f6b 	bl	666c <__ssprint_r>
    28bc:	e3500000 	cmp	r0, #0
    28c0:	1afffa91 	bne	130c <_svfprintf_r+0x314>
    28c4:	e28d40a0 	add	r4, sp, #160	; 0xa0
    28c8:	e8940030 	ldm	r4, {r4, r5}
    28cc:	e28da0d0 	add	r10, sp, #208	; 0xd0
    28d0:	eaffffea 	b	2880 <_svfprintf_r+0x1888>
    28d4:	e59d4038 	ldr	r4, [sp, #56]	; 0x38
    28d8:	e1c44fc4 	bic	r4, r4, r4, asr #31
    28dc:	e59dc044 	ldr	r12, [sp, #68]	; 0x44
    28e0:	e58d4028 	str	r4, [sp, #40]	; 0x28
    28e4:	e5dd307b 	ldrb	r3, [sp, #123]	; 0x7b
    28e8:	e58d5048 	str	r5, [sp, #72]	; 0x48
    28ec:	e58dc054 	str	r12, [sp, #84]	; 0x54
    28f0:	eafffafd 	b	14ec <_svfprintf_r+0x4f4>
    28f4:	e59d4048 	ldr	r4, [sp, #72]	; 0x48
    28f8:	e59dc048 	ldr	r12, [sp, #72]	; 0x48
    28fc:	e5943000 	ldr	r3, [r4]
    2900:	e28cc004 	add	r12, r12, #4
    2904:	e1a05fc3 	asr	r5, r3, #31
    2908:	e1a04003 	mov	r4, r3
    290c:	e1a02003 	mov	r2, r3
    2910:	e58dc048 	str	r12, [sp, #72]	; 0x48
    2914:	e1a03005 	mov	r3, r5
    2918:	eafffabd 	b	1414 <_svfprintf_r+0x41c>
    291c:	e59d4048 	ldr	r4, [sp, #72]	; 0x48
    2920:	e59dc048 	ldr	r12, [sp, #72]	; 0x48
    2924:	e5942000 	ldr	r2, [r4]
    2928:	e3a05000 	mov	r5, #0
    292c:	e1a04002 	mov	r4, r2
    2930:	e28cc004 	add	r12, r12, #4
    2934:	e0522005 	subs	r2, r2, r5
    2938:	13a02001 	movne	r2, #1
    293c:	e58dc048 	str	r12, [sp, #72]	; 0x48
    2940:	e3a03001 	mov	r3, #1
    2944:	eafffb7a 	b	1734 <_svfprintf_r+0x73c>
    2948:	e59d4048 	ldr	r4, [sp, #72]	; 0x48
    294c:	e59dc048 	ldr	r12, [sp, #72]	; 0x48
    2950:	e5942000 	ldr	r2, [r4]
    2954:	e3a05000 	mov	r5, #0
    2958:	e1a04002 	mov	r4, r2
    295c:	e28cc004 	add	r12, r12, #4
    2960:	e0522005 	subs	r2, r2, r5
    2964:	13a02001 	movne	r2, #1
    2968:	e58dc048 	str	r12, [sp, #72]	; 0x48
    296c:	eafffb70 	b	1734 <_svfprintf_r+0x73c>
    2970:	e3760001 	cmn	r6, #1
    2974:	e3c7b020 	bic	r11, r7, #32
    2978:	03a06006 	moveq	r6, #6
    297c:	0a000003 	beq	2990 <_svfprintf_r+0x1998>
    2980:	e35b0047 	cmp	r11, #71	; 0x47
    2984:	1a000001 	bne	2990 <_svfprintf_r+0x1998>
    2988:	e3560000 	cmp	r6, #0
    298c:	03a06001 	moveq	r6, #1
    2990:	e59d4020 	ldr	r4, [sp, #32]
    2994:	e3550000 	cmp	r5, #0
    2998:	e3844c01 	orr	r4, r4, #256	; 0x100
    299c:	e58d403c 	str	r4, [sp, #60]	; 0x3c
    29a0:	b3a0c02d 	movlt	r12, #45	; 0x2d
    29a4:	a3a04000 	movge	r4, #0
    29a8:	a58d4044 	strge	r4, [sp, #68]	; 0x44
    29ac:	b2855102 	addlt	r5, r5, #-2147483648	; 0x80000000
    29b0:	b58dc044 	strlt	r12, [sp, #68]	; 0x44
    29b4:	e25b3046 	subs	r3, r11, #70	; 0x46
    29b8:	e2734000 	rsbs	r4, r3, #0
    29bc:	e0b44003 	adcs	r4, r4, r3
    29c0:	e3540000 	cmp	r4, #0
    29c4:	0a000069 	beq	2b70 <_svfprintf_r+0x1b78>
    29c8:	e3a01003 	mov	r1, #3
    29cc:	e88d0042 	stm	sp, {r1, r6}
    29d0:	e28d1080 	add	r1, sp, #128	; 0x80
    29d4:	e58d1008 	str	r1, [sp, #8]
    29d8:	e28d1084 	add	r1, sp, #132	; 0x84
    29dc:	e58d100c 	str	r1, [sp, #12]
    29e0:	e28d1088 	add	r1, sp, #136	; 0x88
    29e4:	e1a02009 	mov	r2, r9
    29e8:	e1a03005 	mov	r3, r5
    29ec:	e58d1010 	str	r1, [sp, #16]
    29f0:	e59d0040 	ldr	r0, [sp, #64]	; 0x40
    29f4:	eb00027b 	bl	33e8 <_dtoa_r>
    29f8:	e35b0047 	cmp	r11, #71	; 0x47
    29fc:	e1a08000 	mov	r8, r0
    2a00:	1a000002 	bne	2a10 <_svfprintf_r+0x1a18>
    2a04:	e59dc020 	ldr	r12, [sp, #32]
    2a08:	e31c0001 	tst	r12, #1
    2a0c:	0a0000ba 	beq	2cfc <_svfprintf_r+0x1d04>
    2a10:	e3540000 	cmp	r4, #0
    2a14:	e0884006 	add	r4, r8, r6
    2a18:	0a000004 	beq	2a30 <_svfprintf_r+0x1a38>
    2a1c:	e5d83000 	ldrb	r3, [r8]
    2a20:	e3530030 	cmp	r3, #48	; 0x30
    2a24:	0a00011a 	beq	2e94 <_svfprintf_r+0x1e9c>
    2a28:	e59d3080 	ldr	r3, [sp, #128]	; 0x80
    2a2c:	e0844003 	add	r4, r4, r3
    2a30:	e1a00009 	mov	r0, r9
    2a34:	e1a01005 	mov	r1, r5
    2a38:	e3a02000 	mov	r2, #0
    2a3c:	e3a03000 	mov	r3, #0
    2a40:	eb001995 	bl	909c <__aeabi_dcmpeq>
    2a44:	e3500000 	cmp	r0, #0
    2a48:	1a000008 	bne	2a70 <_svfprintf_r+0x1a78>
    2a4c:	e59d3088 	ldr	r3, [sp, #136]	; 0x88
    2a50:	e1540003 	cmp	r4, r3
    2a54:	91a04003 	movls	r4, r3
    2a58:	9a000004 	bls	2a70 <_svfprintf_r+0x1a78>
    2a5c:	e3a02030 	mov	r2, #48	; 0x30
    2a60:	e4c32001 	strb	r2, [r3], #1
    2a64:	e1530004 	cmp	r3, r4
    2a68:	e58d3088 	str	r3, [sp, #136]	; 0x88
    2a6c:	1afffffb 	bne	2a60 <_svfprintf_r+0x1a68>
    2a70:	e0684004 	rsb	r4, r8, r4
    2a74:	e35b0047 	cmp	r11, #71	; 0x47
    2a78:	e58d404c 	str	r4, [sp, #76]	; 0x4c
    2a7c:	0a0000a1 	beq	2d08 <_svfprintf_r+0x1d10>
    2a80:	e3570065 	cmp	r7, #101	; 0x65
    2a84:	da000136 	ble	2f64 <_svfprintf_r+0x1f6c>
    2a88:	e3570066 	cmp	r7, #102	; 0x66
    2a8c:	e59d3080 	ldr	r3, [sp, #128]	; 0x80
    2a90:	0a0000d6 	beq	2df0 <_svfprintf_r+0x1df8>
    2a94:	e59dc04c 	ldr	r12, [sp, #76]	; 0x4c
    2a98:	e153000c 	cmp	r3, r12
    2a9c:	ba0000c9 	blt	2dc8 <_svfprintf_r+0x1dd0>
    2aa0:	e59d4020 	ldr	r4, [sp, #32]
    2aa4:	e3140001 	tst	r4, #1
    2aa8:	12834001 	addne	r4, r3, #1
    2aac:	01c3cfc3 	biceq	r12, r3, r3, asr #31
    2ab0:	11c4cfc4 	bicne	r12, r4, r4, asr #31
    2ab4:	058dc028 	streq	r12, [sp, #40]	; 0x28
    2ab8:	058d3038 	streq	r3, [sp, #56]	; 0x38
    2abc:	158d4038 	strne	r4, [sp, #56]	; 0x38
    2ac0:	158dc028 	strne	r12, [sp, #40]	; 0x28
    2ac4:	e3a07067 	mov	r7, #103	; 0x67
    2ac8:	e58d3054 	str	r3, [sp, #84]	; 0x54
    2acc:	e59dc044 	ldr	r12, [sp, #68]	; 0x44
    2ad0:	e35c0000 	cmp	r12, #0
    2ad4:	0a000084 	beq	2cec <_svfprintf_r+0x1cf4>
    2ad8:	e59d403c 	ldr	r4, [sp, #60]	; 0x3c
    2adc:	e3a0302d 	mov	r3, #45	; 0x2d
    2ae0:	e3a0c000 	mov	r12, #0
    2ae4:	e5cd307b 	strb	r3, [sp, #123]	; 0x7b
    2ae8:	e58d4020 	str	r4, [sp, #32]
    2aec:	e58dc044 	str	r12, [sp, #68]	; 0x44
    2af0:	eafffa7f 	b	14f4 <_svfprintf_r+0x4fc>
    2af4:	e59d0040 	ldr	r0, [sp, #64]	; 0x40
    2af8:	e59d1030 	ldr	r1, [sp, #48]	; 0x30
    2afc:	e28d209c 	add	r2, sp, #156	; 0x9c
    2b00:	eb000ed9 	bl	666c <__ssprint_r>
    2b04:	e3500000 	cmp	r0, #0
    2b08:	1afff9ff 	bne	130c <_svfprintf_r+0x314>
    2b0c:	e59d50a4 	ldr	r5, [sp, #164]	; 0xa4
    2b10:	e28da0d0 	add	r10, sp, #208	; 0xd0
    2b14:	eafffcd9 	b	1e80 <_svfprintf_r+0xe88>
    2b18:	e59d4048 	ldr	r4, [sp, #72]	; 0x48
    2b1c:	e59dc020 	ldr	r12, [sp, #32]
    2b20:	e5943000 	ldr	r3, [r4]
    2b24:	e31c0040 	tst	r12, #64	; 0x40
    2b28:	e59dc02c 	ldr	r12, [sp, #44]	; 0x2c
    2b2c:	e2844004 	add	r4, r4, #4
    2b30:	e58d4048 	str	r4, [sp, #72]	; 0x48
    2b34:	11c3c0b0 	strhne	r12, [r3]
    2b38:	0583c000 	streq	r12, [r3]
    2b3c:	eafff951 	b	1088 <_svfprintf_r+0x90>
    2b40:	e59d0040 	ldr	r0, [sp, #64]	; 0x40
    2b44:	e3a01040 	mov	r1, #64	; 0x40
    2b48:	eb00081d 	bl	4bc4 <_malloc_r>
    2b4c:	e59dc030 	ldr	r12, [sp, #48]	; 0x30
    2b50:	e3500000 	cmp	r0, #0
    2b54:	e58c0000 	str	r0, [r12]
    2b58:	e58c0010 	str	r0, [r12, #16]
    2b5c:	0a0000fa 	beq	2f4c <_svfprintf_r+0x1f54>
    2b60:	e59dc030 	ldr	r12, [sp, #48]	; 0x30
    2b64:	e3a03040 	mov	r3, #64	; 0x40
    2b68:	e58c3014 	str	r3, [r12, #20]
    2b6c:	eafff937 	b	1050 <_svfprintf_r+0x58>
    2b70:	e35b0045 	cmp	r11, #69	; 0x45
    2b74:	1a000091 	bne	2dc0 <_svfprintf_r+0x1dc8>
    2b78:	e2864001 	add	r4, r6, #1
    2b7c:	e3a01002 	mov	r1, #2
    2b80:	e88d0012 	stm	sp, {r1, r4}
    2b84:	e28d1080 	add	r1, sp, #128	; 0x80
    2b88:	e58d1008 	str	r1, [sp, #8]
    2b8c:	e28d1084 	add	r1, sp, #132	; 0x84
    2b90:	e58d100c 	str	r1, [sp, #12]
    2b94:	e28d1088 	add	r1, sp, #136	; 0x88
    2b98:	e1a02009 	mov	r2, r9
    2b9c:	e1a03005 	mov	r3, r5
    2ba0:	e58d1010 	str	r1, [sp, #16]
    2ba4:	e59d0040 	ldr	r0, [sp, #64]	; 0x40
    2ba8:	eb00020e 	bl	33e8 <_dtoa_r>
    2bac:	e1a08000 	mov	r8, r0
    2bb0:	e0804004 	add	r4, r0, r4
    2bb4:	eaffff9d 	b	2a30 <_svfprintf_r+0x1a38>
    2bb8:	e59d0040 	ldr	r0, [sp, #64]	; 0x40
    2bbc:	e59d1030 	ldr	r1, [sp, #48]	; 0x30
    2bc0:	e28d209c 	add	r2, sp, #156	; 0x9c
    2bc4:	eb000ea8 	bl	666c <__ssprint_r>
    2bc8:	e3500000 	cmp	r0, #0
    2bcc:	1afff9ce 	bne	130c <_svfprintf_r+0x314>
    2bd0:	e59d7080 	ldr	r7, [sp, #128]	; 0x80
    2bd4:	e59d50a4 	ldr	r5, [sp, #164]	; 0xa4
    2bd8:	e28da0d0 	add	r10, sp, #208	; 0xd0
    2bdc:	eaffff06 	b	27fc <_svfprintf_r+0x1804>
    2be0:	e1a06008 	mov	r6, r8
    2be4:	e59d8038 	ldr	r8, [sp, #56]	; 0x38
    2be8:	e2844001 	add	r4, r4, #1
    2bec:	e0855007 	add	r5, r5, r7
    2bf0:	e3540007 	cmp	r4, #7
    2bf4:	e88a00c0 	stm	r10, {r6, r7}
    2bf8:	e58d50a4 	str	r5, [sp, #164]	; 0xa4
    2bfc:	e58d40a0 	str	r4, [sp, #160]	; 0xa0
    2c00:	d28aa008 	addle	r10, r10, #8
    2c04:	da000008 	ble	2c2c <_svfprintf_r+0x1c34>
    2c08:	e59d0040 	ldr	r0, [sp, #64]	; 0x40
    2c0c:	e59d1030 	ldr	r1, [sp, #48]	; 0x30
    2c10:	e28d209c 	add	r2, sp, #156	; 0x9c
    2c14:	eb000e94 	bl	666c <__ssprint_r>
    2c18:	e3500000 	cmp	r0, #0
    2c1c:	1afff9ba 	bne	130c <_svfprintf_r+0x314>
    2c20:	e28d40a0 	add	r4, sp, #160	; 0xa0
    2c24:	e8940030 	ldm	r4, {r4, r5}
    2c28:	e28da0d0 	add	r10, sp, #208	; 0xd0
    2c2c:	e2844001 	add	r4, r4, #1
    2c30:	e59dc04c 	ldr	r12, [sp, #76]	; 0x4c
    2c34:	eafffc1d 	b	1cb0 <_svfprintf_r+0xcb8>
    2c38:	e59d0040 	ldr	r0, [sp, #64]	; 0x40
    2c3c:	e59d1030 	ldr	r1, [sp, #48]	; 0x30
    2c40:	e28d209c 	add	r2, sp, #156	; 0x9c
    2c44:	eb000e88 	bl	666c <__ssprint_r>
    2c48:	e3500000 	cmp	r0, #0
    2c4c:	1afff9ae 	bne	130c <_svfprintf_r+0x314>
    2c50:	e28d40a0 	add	r4, sp, #160	; 0xa0
    2c54:	e59d7080 	ldr	r7, [sp, #128]	; 0x80
    2c58:	e8940030 	ldm	r4, {r4, r5}
    2c5c:	e28da0d0 	add	r10, sp, #208	; 0xd0
    2c60:	eafffefa 	b	2850 <_svfprintf_r+0x1858>
    2c64:	eb000e68 	bl	660c <strlen>
    2c68:	e58d4044 	str	r4, [sp, #68]	; 0x44
    2c6c:	e58d0038 	str	r0, [sp, #56]	; 0x38
    2c70:	e1c04fc0 	bic	r4, r0, r0, asr #31
    2c74:	eaffff18 	b	28dc <_svfprintf_r+0x18e4>
    2c78:	e59d0040 	ldr	r0, [sp, #64]	; 0x40
    2c7c:	e59d1030 	ldr	r1, [sp, #48]	; 0x30
    2c80:	e28d209c 	add	r2, sp, #156	; 0x9c
    2c84:	eb000e78 	bl	666c <__ssprint_r>
    2c88:	e3500000 	cmp	r0, #0
    2c8c:	1afff99e 	bne	130c <_svfprintf_r+0x314>
    2c90:	e59d50a4 	ldr	r5, [sp, #164]	; 0xa4
    2c94:	e28da0d0 	add	r10, sp, #208	; 0xd0
    2c98:	eafffd65 	b	2234 <_svfprintf_r+0x123c>
    2c9c:	e59d0040 	ldr	r0, [sp, #64]	; 0x40
    2ca0:	e59d1030 	ldr	r1, [sp, #48]	; 0x30
    2ca4:	e28d209c 	add	r2, sp, #156	; 0x9c
    2ca8:	eb000e6f 	bl	666c <__ssprint_r>
    2cac:	e3500000 	cmp	r0, #0
    2cb0:	1afff995 	bne	130c <_svfprintf_r+0x314>
    2cb4:	e59d3080 	ldr	r3, [sp, #128]	; 0x80
    2cb8:	e59dc04c 	ldr	r12, [sp, #76]	; 0x4c
    2cbc:	e59d50a4 	ldr	r5, [sp, #164]	; 0xa4
    2cc0:	e063300c 	rsb	r3, r3, r12
    2cc4:	e28da0d0 	add	r10, sp, #208	; 0xd0
    2cc8:	eafffe06 	b	24e8 <_svfprintf_r+0x14f0>
    2ccc:	e3560006 	cmp	r6, #6
    2cd0:	23a06006 	movcs	r6, #6
    2cd4:	e1c64fc6 	bic	r4, r6, r6, asr #31
    2cd8:	e58d6038 	str	r6, [sp, #56]	; 0x38
    2cdc:	e58d4028 	str	r4, [sp, #40]	; 0x28
    2ce0:	e58d5048 	str	r5, [sp, #72]	; 0x48
    2ce4:	e51f87b0 	ldr	r8, [pc, #-1968]	; 253c <_svfprintf_r+0x1544>
    2ce8:	eafffaa1 	b	1774 <_svfprintf_r+0x77c>
    2cec:	e59dc03c 	ldr	r12, [sp, #60]	; 0x3c
    2cf0:	e5dd307b 	ldrb	r3, [sp, #123]	; 0x7b
    2cf4:	e58dc020 	str	r12, [sp, #32]
    2cf8:	eafff9fb 	b	14ec <_svfprintf_r+0x4f4>
    2cfc:	e59d3088 	ldr	r3, [sp, #136]	; 0x88
    2d00:	e0603003 	rsb	r3, r0, r3
    2d04:	e58d304c 	str	r3, [sp, #76]	; 0x4c
    2d08:	e59d1080 	ldr	r1, [sp, #128]	; 0x80
    2d0c:	e3710003 	cmn	r1, #3
    2d10:	e1a03001 	mov	r3, r1
    2d14:	ba000001 	blt	2d20 <_svfprintf_r+0x1d28>
    2d18:	e1560001 	cmp	r6, r1
    2d1c:	aaffff5c 	bge	2a94 <_svfprintf_r+0x1a9c>
    2d20:	e2477002 	sub	r7, r7, #2
    2d24:	e2411001 	sub	r1, r1, #1
    2d28:	e3510000 	cmp	r1, #0
    2d2c:	e58d1080 	str	r1, [sp, #128]	; 0x80
    2d30:	b2611000 	rsblt	r1, r1, #0
    2d34:	b3a0302d 	movlt	r3, #45	; 0x2d
    2d38:	a3a0302b 	movge	r3, #43	; 0x2b
    2d3c:	e3510009 	cmp	r1, #9
    2d40:	e5cd708c 	strb	r7, [sp, #140]	; 0x8c
    2d44:	e5cd308d 	strb	r3, [sp, #141]	; 0x8d
    2d48:	ca000033 	bgt	2e1c <_svfprintf_r+0x1e24>
    2d4c:	e2811030 	add	r1, r1, #48	; 0x30
    2d50:	e3a03030 	mov	r3, #48	; 0x30
    2d54:	e5cd108f 	strb	r1, [sp, #143]	; 0x8f
    2d58:	e5cd308e 	strb	r3, [sp, #142]	; 0x8e
    2d5c:	e28d3090 	add	r3, sp, #144	; 0x90
    2d60:	e59d404c 	ldr	r4, [sp, #76]	; 0x4c
    2d64:	e28d208c 	add	r2, sp, #140	; 0x8c
    2d68:	e0622003 	rsb	r2, r2, r3
    2d6c:	e084c002 	add	r12, r4, r2
    2d70:	e3540001 	cmp	r4, #1
    2d74:	e58d2068 	str	r2, [sp, #104]	; 0x68
    2d78:	e58dc038 	str	r12, [sp, #56]	; 0x38
    2d7c:	da000066 	ble	2f1c <_svfprintf_r+0x1f24>
    2d80:	e59d3038 	ldr	r3, [sp, #56]	; 0x38
    2d84:	e2833001 	add	r3, r3, #1
    2d88:	e1c34fc3 	bic	r4, r3, r3, asr #31
    2d8c:	e3a0c000 	mov	r12, #0
    2d90:	e58d3038 	str	r3, [sp, #56]	; 0x38
    2d94:	e58d4028 	str	r4, [sp, #40]	; 0x28
    2d98:	e58dc054 	str	r12, [sp, #84]	; 0x54
    2d9c:	eaffff4a 	b	2acc <_svfprintf_r+0x1ad4>
    2da0:	e1c6cfc6 	bic	r12, r6, r6, asr #31
    2da4:	e58d0044 	str	r0, [sp, #68]	; 0x44
    2da8:	e58dc028 	str	r12, [sp, #40]	; 0x28
    2dac:	e5dd307b 	ldrb	r3, [sp, #123]	; 0x7b
    2db0:	e58d5048 	str	r5, [sp, #72]	; 0x48
    2db4:	e58d6038 	str	r6, [sp, #56]	; 0x38
    2db8:	e58d0054 	str	r0, [sp, #84]	; 0x54
    2dbc:	eafff9ca 	b	14ec <_svfprintf_r+0x4f4>
    2dc0:	e3a01002 	mov	r1, #2
    2dc4:	eaffff00 	b	29cc <_svfprintf_r+0x19d4>
    2dc8:	e3530000 	cmp	r3, #0
    2dcc:	e59d404c 	ldr	r4, [sp, #76]	; 0x4c
    2dd0:	d2632002 	rsble	r2, r3, #2
    2dd4:	c3a02001 	movgt	r2, #1
    2dd8:	e0822004 	add	r2, r2, r4
    2ddc:	e1c2cfc2 	bic	r12, r2, r2, asr #31
    2de0:	e58d2038 	str	r2, [sp, #56]	; 0x38
    2de4:	e58dc028 	str	r12, [sp, #40]	; 0x28
    2de8:	e3a07067 	mov	r7, #103	; 0x67
    2dec:	eaffff35 	b	2ac8 <_svfprintf_r+0x1ad0>
    2df0:	e3530000 	cmp	r3, #0
    2df4:	da00003f 	ble	2ef8 <_svfprintf_r+0x1f00>
    2df8:	e3560000 	cmp	r6, #0
    2dfc:	1a00002e 	bne	2ebc <_svfprintf_r+0x1ec4>
    2e00:	e59d4020 	ldr	r4, [sp, #32]
    2e04:	e3140001 	tst	r4, #1
    2e08:	1a00002b 	bne	2ebc <_svfprintf_r+0x1ec4>
    2e0c:	e1c3cfc3 	bic	r12, r3, r3, asr #31
    2e10:	e58dc028 	str	r12, [sp, #40]	; 0x28
    2e14:	e58d3038 	str	r3, [sp, #56]	; 0x38
    2e18:	eaffff2a 	b	2ac8 <_svfprintf_r+0x1ad0>
    2e1c:	e28d309a 	add	r3, sp, #154	; 0x9a
    2e20:	e51f28e8 	ldr	r2, [pc, #-2280]	; 2540 <_svfprintf_r+0x1548>
    2e24:	e0c04192 	smull	r4, r0, r2, r1
    2e28:	e1a02fc1 	asr	r2, r1, #31
    2e2c:	e0622140 	rsb	r2, r2, r0, asr #2
    2e30:	e0820102 	add	r0, r2, r2, lsl #2
    2e34:	e0410080 	sub	r0, r1, r0, lsl #1
    2e38:	e1a01002 	mov	r1, r2
    2e3c:	e3510009 	cmp	r1, #9
    2e40:	e1a02003 	mov	r2, r3
    2e44:	e2803030 	add	r3, r0, #48	; 0x30
    2e48:	e5c23000 	strb	r3, [r2]
    2e4c:	e2423001 	sub	r3, r2, #1
    2e50:	cafffff2 	bgt	2e20 <_svfprintf_r+0x1e28>
    2e54:	e28dc09b 	add	r12, sp, #155	; 0x9b
    2e58:	e2811030 	add	r1, r1, #48	; 0x30
    2e5c:	e15c0003 	cmp	r12, r3
    2e60:	e5421001 	strb	r1, [r2, #-1]
    2e64:	9a000040 	bls	2f6c <_svfprintf_r+0x1f74>
    2e68:	e28d008d 	add	r0, sp, #141	; 0x8d
    2e6c:	e1a03002 	mov	r3, r2
    2e70:	ea000000 	b	2e78 <_svfprintf_r+0x1e80>
    2e74:	e4d31001 	ldrb	r1, [r3], #1
    2e78:	e153000c 	cmp	r3, r12
    2e7c:	e5e01001 	strb	r1, [r0, #1]!
    2e80:	1afffffb 	bne	2e74 <_svfprintf_r+0x1e7c>
    2e84:	e28dce11 	add	r12, sp, #272	; 0x110
    2e88:	e062308c 	rsb	r3, r2, r12, lsl #1
    2e8c:	e24330f6 	sub	r3, r3, #246	; 0xf6
    2e90:	eaffffb2 	b	2d60 <_svfprintf_r+0x1d68>
    2e94:	e3a03000 	mov	r3, #0
    2e98:	e1a00009 	mov	r0, r9
    2e9c:	e1a01005 	mov	r1, r5
    2ea0:	e3a02000 	mov	r2, #0
    2ea4:	eb00187c 	bl	909c <__aeabi_dcmpeq>
    2ea8:	e3500000 	cmp	r0, #0
    2eac:	02663001 	rsbeq	r3, r6, #1
    2eb0:	058d3080 	streq	r3, [sp, #128]	; 0x80
    2eb4:	0afffedc 	beq	2a2c <_svfprintf_r+0x1a34>
    2eb8:	eafffeda 	b	2a28 <_svfprintf_r+0x1a30>
    2ebc:	e2866001 	add	r6, r6, #1
    2ec0:	e0836006 	add	r6, r3, r6
    2ec4:	e1c64fc6 	bic	r4, r6, r6, asr #31
    2ec8:	e58d6038 	str	r6, [sp, #56]	; 0x38
    2ecc:	e58d4028 	str	r4, [sp, #40]	; 0x28
    2ed0:	eafffefc 	b	2ac8 <_svfprintf_r+0x1ad0>
    2ed4:	e59d4048 	ldr	r4, [sp, #72]	; 0x48
    2ed8:	e5946000 	ldr	r6, [r4]
    2edc:	e2840004 	add	r0, r4, #4
    2ee0:	e3560000 	cmp	r6, #0
    2ee4:	e5d37001 	ldrb	r7, [r3, #1]
    2ee8:	e58d0048 	str	r0, [sp, #72]	; 0x48
    2eec:	e1a0300c 	mov	r3, r12
    2ef0:	b3e06000 	mvnlt	r6, #0
    2ef4:	eafff88f 	b	1138 <_svfprintf_r+0x140>
    2ef8:	e3560000 	cmp	r6, #0
    2efc:	1a00000d 	bne	2f38 <_svfprintf_r+0x1f40>
    2f00:	e59dc020 	ldr	r12, [sp, #32]
    2f04:	e31c0001 	tst	r12, #1
    2f08:	1a00000a 	bne	2f38 <_svfprintf_r+0x1f40>
    2f0c:	e3a04001 	mov	r4, #1
    2f10:	e58d4028 	str	r4, [sp, #40]	; 0x28
    2f14:	e58d4038 	str	r4, [sp, #56]	; 0x38
    2f18:	eafffeea 	b	2ac8 <_svfprintf_r+0x1ad0>
    2f1c:	e59d4020 	ldr	r4, [sp, #32]
    2f20:	e2143001 	ands	r3, r4, #1
    2f24:	1affff95 	bne	2d80 <_svfprintf_r+0x1d88>
    2f28:	e1cccfcc 	bic	r12, r12, r12, asr #31
    2f2c:	e58dc028 	str	r12, [sp, #40]	; 0x28
    2f30:	e58d3054 	str	r3, [sp, #84]	; 0x54
    2f34:	eafffee4 	b	2acc <_svfprintf_r+0x1ad4>
    2f38:	e2866002 	add	r6, r6, #2
    2f3c:	e1c64fc6 	bic	r4, r6, r6, asr #31
    2f40:	e58d6038 	str	r6, [sp, #56]	; 0x38
    2f44:	e58d4028 	str	r4, [sp, #40]	; 0x28
    2f48:	eafffede 	b	2ac8 <_svfprintf_r+0x1ad0>
    2f4c:	e59d4040 	ldr	r4, [sp, #64]	; 0x40
    2f50:	e3a0300c 	mov	r3, #12
    2f54:	e3e0c000 	mvn	r12, #0
    2f58:	e5843000 	str	r3, [r4]
    2f5c:	e58dc02c 	str	r12, [sp, #44]	; 0x2c
    2f60:	eafff8ef 	b	1324 <_svfprintf_r+0x32c>
    2f64:	e59d1080 	ldr	r1, [sp, #128]	; 0x80
    2f68:	eaffff6d 	b	2d24 <_svfprintf_r+0x1d2c>
    2f6c:	e28d308e 	add	r3, sp, #142	; 0x8e
    2f70:	eaffff7a 	b	2d60 <_svfprintf_r+0x1d68>

00002f74 <__register_exitproc>:
    2f74:	e59fc0e4 	ldr	r12, [pc, #228]	; 3060 <__register_exitproc+0xec>
    2f78:	e92d41f0 	push	{r4, r5, r6, r7, r8, lr}
    2f7c:	e59c4000 	ldr	r4, [r12]
    2f80:	e594c148 	ldr	r12, [r4, #328]	; 0x148
    2f84:	e35c0000 	cmp	r12, #0
    2f88:	0284cf53 	addeq	r12, r4, #332	; 0x14c
    2f8c:	e59c5004 	ldr	r5, [r12, #4]
    2f90:	0584c148 	streq	r12, [r4, #328]	; 0x148
    2f94:	e355001f 	cmp	r5, #31
    2f98:	e24dd010 	sub	sp, sp, #16
    2f9c:	e1a06000 	mov	r6, r0
    2fa0:	da000015 	ble	2ffc <__register_exitproc+0x88>
    2fa4:	e59f00b8 	ldr	r0, [pc, #184]	; 3064 <__register_exitproc+0xf0>
    2fa8:	e3500000 	cmp	r0, #0
    2fac:	1a000001 	bne	2fb8 <__register_exitproc+0x44>
    2fb0:	e3e00000 	mvn	r0, #0
    2fb4:	ea000018 	b	301c <__register_exitproc+0xa8>
    2fb8:	e3a00e19 	mov	r0, #400	; 0x190
    2fbc:	e58d100c 	str	r1, [sp, #12]
    2fc0:	e58d2008 	str	r2, [sp, #8]
    2fc4:	e58d3004 	str	r3, [sp, #4]
    2fc8:	e320f000 	nop	{0}
    2fcc:	e250c000 	subs	r12, r0, #0
    2fd0:	e59d100c 	ldr	r1, [sp, #12]
    2fd4:	e59d2008 	ldr	r2, [sp, #8]
    2fd8:	e59d3004 	ldr	r3, [sp, #4]
    2fdc:	0afffff3 	beq	2fb0 <__register_exitproc+0x3c>
    2fe0:	e5945148 	ldr	r5, [r4, #328]	; 0x148
    2fe4:	e3a00000 	mov	r0, #0
    2fe8:	e58c0004 	str	r0, [r12, #4]
    2fec:	e58c5000 	str	r5, [r12]
    2ff0:	e584c148 	str	r12, [r4, #328]	; 0x148
    2ff4:	e58c0188 	str	r0, [r12, #392]	; 0x188
    2ff8:	e58c018c 	str	r0, [r12, #396]	; 0x18c
    2ffc:	e3560000 	cmp	r6, #0
    3000:	e59c4004 	ldr	r4, [r12, #4]
    3004:	1a000007 	bne	3028 <__register_exitproc+0xb4>
    3008:	e2843002 	add	r3, r4, #2
    300c:	e2844001 	add	r4, r4, #1
    3010:	e78c1103 	str	r1, [r12, r3, lsl #2]
    3014:	e58c4004 	str	r4, [r12, #4]
    3018:	e3a00000 	mov	r0, #0
    301c:	e28dd010 	add	sp, sp, #16
    3020:	e8bd41f0 	pop	{r4, r5, r6, r7, r8, lr}
    3024:	e12fff1e 	bx	lr
    3028:	e3a00001 	mov	r0, #1
    302c:	e1a00410 	lsl	r0, r0, r4
    3030:	e08c8104 	add	r8, r12, r4, lsl #2
    3034:	e3560002 	cmp	r6, #2
    3038:	e59c7188 	ldr	r7, [r12, #392]	; 0x188
    303c:	e5883108 	str	r3, [r8, #264]	; 0x108
    3040:	059c318c 	ldreq	r3, [r12, #396]	; 0x18c
    3044:	e1877000 	orr	r7, r7, r0
    3048:	01830000 	orreq	r0, r3, r0
    304c:	e1a05008 	mov	r5, r8
    3050:	e5882088 	str	r2, [r8, #136]	; 0x88
    3054:	e58c7188 	str	r7, [r12, #392]	; 0x188
    3058:	058c018c 	streq	r0, [r12, #396]	; 0x18c
    305c:	eaffffe9 	b	3008 <__register_exitproc+0x94>
    3060:	00009e38 	.word	0x00009e38
    3064:	00000000 	.word	0x00000000

00003068 <__call_exitprocs>:
    3068:	e92d4ff0 	push	{r4, r5, r6, r7, r8, r9, r10, r11, lr}
    306c:	e59f3168 	ldr	r3, [pc, #360]	; 31dc <__call_exitprocs+0x174>
    3070:	e5933000 	ldr	r3, [r3]
    3074:	e24dd014 	sub	sp, sp, #20
    3078:	e58d3004 	str	r3, [sp, #4]
    307c:	e2833f52 	add	r3, r3, #328	; 0x148
    3080:	e58d0008 	str	r0, [sp, #8]
    3084:	e58d300c 	str	r3, [sp, #12]
    3088:	e1a07001 	mov	r7, r1
    308c:	e3a08001 	mov	r8, #1
    3090:	e59d3004 	ldr	r3, [sp, #4]
    3094:	e5936148 	ldr	r6, [r3, #328]	; 0x148
    3098:	e3560000 	cmp	r6, #0
    309c:	e59db00c 	ldr	r11, [sp, #12]
    30a0:	0a000033 	beq	3174 <__call_exitprocs+0x10c>
    30a4:	e5965004 	ldr	r5, [r6, #4]
    30a8:	e2554001 	subs	r4, r5, #1
    30ac:	5286a088 	addpl	r10, r6, #136	; 0x88
    30b0:	5285501f 	addpl	r5, r5, #31
    30b4:	508a5105 	addpl	r5, r10, r5, lsl #2
    30b8:	5a000007 	bpl	30dc <__call_exitprocs+0x74>
    30bc:	ea000029 	b	3168 <__call_exitprocs+0x100>
    30c0:	e5953000 	ldr	r3, [r5]
    30c4:	e1530007 	cmp	r3, r7
    30c8:	0a000005 	beq	30e4 <__call_exitprocs+0x7c>
    30cc:	e2444001 	sub	r4, r4, #1
    30d0:	e3740001 	cmn	r4, #1
    30d4:	e2455004 	sub	r5, r5, #4
    30d8:	0a000022 	beq	3168 <__call_exitprocs+0x100>
    30dc:	e3570000 	cmp	r7, #0
    30e0:	1afffff6 	bne	30c0 <__call_exitprocs+0x58>
    30e4:	e5963004 	ldr	r3, [r6, #4]
    30e8:	e06a2005 	rsb	r2, r10, r5
    30ec:	e2433001 	sub	r3, r3, #1
    30f0:	e0862002 	add	r2, r6, r2
    30f4:	e1530004 	cmp	r3, r4
    30f8:	e5123078 	ldr	r3, [r2, #-120]	; 0xffffff88
    30fc:	13a01000 	movne	r1, #0
    3100:	05864004 	streq	r4, [r6, #4]
    3104:	15021078 	strne	r1, [r2, #-120]	; 0xffffff88
    3108:	e3530000 	cmp	r3, #0
    310c:	0affffee 	beq	30cc <__call_exitprocs+0x64>
    3110:	e1a02418 	lsl	r2, r8, r4
    3114:	e5961188 	ldr	r1, [r6, #392]	; 0x188
    3118:	e1120001 	tst	r2, r1
    311c:	e5969004 	ldr	r9, [r6, #4]
    3120:	0a000016 	beq	3180 <__call_exitprocs+0x118>
    3124:	e596118c 	ldr	r1, [r6, #396]	; 0x18c
    3128:	e1120001 	tst	r2, r1
    312c:	1a000016 	bne	318c <__call_exitprocs+0x124>
    3130:	e59d0008 	ldr	r0, [sp, #8]
    3134:	e5151080 	ldr	r1, [r5, #-128]	; 0xffffff80
    3138:	e1a0e00f 	mov	lr, pc
    313c:	e12fff13 	bx	r3
    3140:	e5963004 	ldr	r3, [r6, #4]
    3144:	e1530009 	cmp	r3, r9
    3148:	1affffd0 	bne	3090 <__call_exitprocs+0x28>
    314c:	e59b3000 	ldr	r3, [r11]
    3150:	e1530006 	cmp	r3, r6
    3154:	1affffcd 	bne	3090 <__call_exitprocs+0x28>
    3158:	e2444001 	sub	r4, r4, #1
    315c:	e3740001 	cmn	r4, #1
    3160:	e2455004 	sub	r5, r5, #4
    3164:	1affffdc 	bne	30dc <__call_exitprocs+0x74>
    3168:	e59f1070 	ldr	r1, [pc, #112]	; 31e0 <__call_exitprocs+0x178>
    316c:	e3510000 	cmp	r1, #0
    3170:	1a000009 	bne	319c <__call_exitprocs+0x134>
    3174:	e28dd014 	add	sp, sp, #20
    3178:	e8bd4ff0 	pop	{r4, r5, r6, r7, r8, r9, r10, r11, lr}
    317c:	e12fff1e 	bx	lr
    3180:	e1a0e00f 	mov	lr, pc
    3184:	e12fff13 	bx	r3
    3188:	eaffffec 	b	3140 <__call_exitprocs+0xd8>
    318c:	e5150080 	ldr	r0, [r5, #-128]	; 0xffffff80
    3190:	e1a0e00f 	mov	lr, pc
    3194:	e12fff13 	bx	r3
    3198:	eaffffe8 	b	3140 <__call_exitprocs+0xd8>
    319c:	e5963004 	ldr	r3, [r6, #4]
    31a0:	e3530000 	cmp	r3, #0
    31a4:	e5963000 	ldr	r3, [r6]
    31a8:	1a000008 	bne	31d0 <__call_exitprocs+0x168>
    31ac:	e3530000 	cmp	r3, #0
    31b0:	0a000006 	beq	31d0 <__call_exitprocs+0x168>
    31b4:	e1a00006 	mov	r0, r6
    31b8:	e58b3000 	str	r3, [r11]
    31bc:	e320f000 	nop	{0}
    31c0:	e59b6000 	ldr	r6, [r11]
    31c4:	e3560000 	cmp	r6, #0
    31c8:	1affffb5 	bne	30a4 <__call_exitprocs+0x3c>
    31cc:	eaffffe8 	b	3174 <__call_exitprocs+0x10c>
    31d0:	e1a0b006 	mov	r11, r6
    31d4:	e1a06003 	mov	r6, r3
    31d8:	eafffff9 	b	31c4 <__call_exitprocs+0x15c>
    31dc:	00009e38 	.word	0x00009e38
    31e0:	00000000 	.word	0x00000000

000031e4 <register_fini>:
    31e4:	e92d4008 	push	{r3, lr}
    31e8:	e59f3010 	ldr	r3, [pc, #16]	; 3200 <register_fini+0x1c>
    31ec:	e3530000 	cmp	r3, #0
    31f0:	159f000c 	ldrne	r0, [pc, #12]	; 3204 <register_fini+0x20>
    31f4:	1bfff715 	blne	e50 <atexit>
    31f8:	e8bd4008 	pop	{r3, lr}
    31fc:	e12fff1e 	bx	lr
    3200:	0000a028 	.word	0x0000a028
    3204:	00004ab0 	.word	0x00004ab0

00003208 <quorem>:
    3208:	e92d4ff8 	push	{r3, r4, r5, r6, r7, r8, r9, r10, r11, lr}
    320c:	e5903010 	ldr	r3, [r0, #16]
    3210:	e5916010 	ldr	r6, [r1, #16]
    3214:	e1560003 	cmp	r6, r3
    3218:	e1a0a000 	mov	r10, r0
    321c:	e1a05001 	mov	r5, r1
    3220:	c3a00000 	movgt	r0, #0
    3224:	ca00006d 	bgt	33e0 <quorem+0x1d8>
    3228:	e2863003 	add	r3, r6, #3
    322c:	e1a03103 	lsl	r3, r3, #2
    3230:	e0819003 	add	r9, r1, r3
    3234:	e5991004 	ldr	r1, [r9, #4]
    3238:	e08a3003 	add	r3, r10, r3
    323c:	e5930004 	ldr	r0, [r3, #4]
    3240:	e2811001 	add	r1, r1, #1
    3244:	eb0014ee 	bl	8604 <__aeabi_uidiv>
    3248:	e2507000 	subs	r7, r0, #0
    324c:	e2466001 	sub	r6, r6, #1
    3250:	e2899004 	add	r9, r9, #4
    3254:	e2854014 	add	r4, r5, #20
    3258:	e28a8014 	add	r8, r10, #20
    325c:	0a000030 	beq	3324 <quorem+0x11c>
    3260:	e3a0c000 	mov	r12, #0
    3264:	e1a02008 	mov	r2, r8
    3268:	e1a03004 	mov	r3, r4
    326c:	e1a0000c 	mov	r0, r12
    3270:	e493e004 	ldr	lr, [r3], #4
    3274:	e1a0b80e 	lsl	r11, lr, #16
    3278:	e1a0b82b 	lsr	r11, r11, #16
    327c:	e1a0e82e 	lsr	lr, lr, #16
    3280:	e02bcb97 	mla	r11, r7, r11, r12
    3284:	e00c0e97 	mul	r12, r7, lr
    3288:	e592e000 	ldr	lr, [r2]
    328c:	e08cc82b 	add	r12, r12, r11, lsr #16
    3290:	e1a0180e 	lsl	r1, lr, #16
    3294:	e0801821 	add	r1, r0, r1, lsr #16
    3298:	e1a0b80b 	lsl	r11, r11, #16
    329c:	e1a0080c 	lsl	r0, r12, #16
    32a0:	e041182b 	sub	r1, r1, r11, lsr #16
    32a4:	e1a00820 	lsr	r0, r0, #16
    32a8:	e060082e 	rsb	r0, r0, lr, lsr #16
    32ac:	e1a0b801 	lsl	r11, r1, #16
    32b0:	e0800841 	add	r0, r0, r1, asr #16
    32b4:	e1a0182b 	lsr	r1, r11, #16
    32b8:	e1811800 	orr	r1, r1, r0, lsl #16
    32bc:	e1590003 	cmp	r9, r3
    32c0:	e1a0c82c 	lsr	r12, r12, #16
    32c4:	e1a00840 	asr	r0, r0, #16
    32c8:	e4821004 	str	r1, [r2], #4
    32cc:	2affffe7 	bcs	3270 <quorem+0x68>
    32d0:	e2863004 	add	r3, r6, #4
    32d4:	e08a3103 	add	r3, r10, r3, lsl #2
    32d8:	e5932004 	ldr	r2, [r3, #4]
    32dc:	e3520000 	cmp	r2, #0
    32e0:	1a00000f 	bne	3324 <quorem+0x11c>
    32e4:	e1580003 	cmp	r8, r3
    32e8:	e2832004 	add	r2, r3, #4
    32ec:	2a00000b 	bcs	3320 <quorem+0x118>
    32f0:	e5122004 	ldr	r2, [r2, #-4]
    32f4:	e3520000 	cmp	r2, #0
    32f8:	1a000008 	bne	3320 <quorem+0x118>
    32fc:	e2433004 	sub	r3, r3, #4
    3300:	ea000003 	b	3314 <quorem+0x10c>
    3304:	e5932000 	ldr	r2, [r3]
    3308:	e3520000 	cmp	r2, #0
    330c:	e2433004 	sub	r3, r3, #4
    3310:	1a000002 	bne	3320 <quorem+0x118>
    3314:	e1580003 	cmp	r8, r3
    3318:	e2466001 	sub	r6, r6, #1
    331c:	3afffff8 	bcc	3304 <quorem+0xfc>
    3320:	e58a6010 	str	r6, [r10, #16]
    3324:	e1a0000a 	mov	r0, r10
    3328:	e1a01005 	mov	r1, r5
    332c:	eb000a8d 	bl	5d68 <__mcmp>
    3330:	e3500000 	cmp	r0, #0
    3334:	ba000028 	blt	33dc <quorem+0x1d4>
    3338:	e2877001 	add	r7, r7, #1
    333c:	e1a03008 	mov	r3, r8
    3340:	e3a02000 	mov	r2, #0
    3344:	e4945004 	ldr	r5, [r4], #4
    3348:	e593c000 	ldr	r12, [r3]
    334c:	e1a01805 	lsl	r1, r5, #16
    3350:	e1a0080c 	lsl	r0, r12, #16
    3354:	e1a01821 	lsr	r1, r1, #16
    3358:	e0611820 	rsb	r1, r1, r0, lsr #16
    335c:	e0811002 	add	r1, r1, r2
    3360:	e1a02825 	lsr	r2, r5, #16
    3364:	e062282c 	rsb	r2, r2, r12, lsr #16
    3368:	e1a00801 	lsl	r0, r1, #16
    336c:	e0822841 	add	r2, r2, r1, asr #16
    3370:	e1a01820 	lsr	r1, r0, #16
    3374:	e1811802 	orr	r1, r1, r2, lsl #16
    3378:	e1590004 	cmp	r9, r4
    337c:	e1a02842 	asr	r2, r2, #16
    3380:	e4831004 	str	r1, [r3], #4
    3384:	2affffee 	bcs	3344 <quorem+0x13c>
    3388:	e2863004 	add	r3, r6, #4
    338c:	e08a3103 	add	r3, r10, r3, lsl #2
    3390:	e5932004 	ldr	r2, [r3, #4]
    3394:	e3520000 	cmp	r2, #0
    3398:	1a00000f 	bne	33dc <quorem+0x1d4>
    339c:	e1580003 	cmp	r8, r3
    33a0:	e2832004 	add	r2, r3, #4
    33a4:	2a00000b 	bcs	33d8 <quorem+0x1d0>
    33a8:	e5122004 	ldr	r2, [r2, #-4]
    33ac:	e3520000 	cmp	r2, #0
    33b0:	1a000008 	bne	33d8 <quorem+0x1d0>
    33b4:	e2433004 	sub	r3, r3, #4
    33b8:	ea000003 	b	33cc <quorem+0x1c4>
    33bc:	e5932000 	ldr	r2, [r3]
    33c0:	e3520000 	cmp	r2, #0
    33c4:	e2433004 	sub	r3, r3, #4
    33c8:	1a000002 	bne	33d8 <quorem+0x1d0>
    33cc:	e1580003 	cmp	r8, r3
    33d0:	e2466001 	sub	r6, r6, #1
    33d4:	3afffff8 	bcc	33bc <quorem+0x1b4>
    33d8:	e58a6010 	str	r6, [r10, #16]
    33dc:	e1a00007 	mov	r0, r7
    33e0:	e8bd4ff8 	pop	{r3, r4, r5, r6, r7, r8, r9, r10, r11, lr}
    33e4:	e12fff1e 	bx	lr

000033e8 <_dtoa_r>:
    33e8:	e92d4ff0 	push	{r4, r5, r6, r7, r8, r9, r10, r11, lr}
    33ec:	e5901040 	ldr	r1, [r0, #64]	; 0x40
    33f0:	e24dd07c 	sub	sp, sp, #124	; 0x7c
    33f4:	e3510000 	cmp	r1, #0
    33f8:	e1a06000 	mov	r6, r0
    33fc:	e59d40ac 	ldr	r4, [sp, #172]	; 0xac
    3400:	e58d2010 	str	r2, [sp, #16]
    3404:	e58d3014 	str	r3, [sp, #20]
    3408:	0a000007 	beq	342c <_dtoa_r+0x44>
    340c:	e5903044 	ldr	r3, [r0, #68]	; 0x44
    3410:	e3a02001 	mov	r2, #1
    3414:	e1a02312 	lsl	r2, r2, r3
    3418:	e5813004 	str	r3, [r1, #4]
    341c:	e5812008 	str	r2, [r1, #8]
    3420:	eb00089d 	bl	569c <_Bfree>
    3424:	e3a03000 	mov	r3, #0
    3428:	e5863040 	str	r3, [r6, #64]	; 0x40
    342c:	e59da014 	ldr	r10, [sp, #20]
    3430:	e35a0000 	cmp	r10, #0
    3434:	b3a03001 	movlt	r3, #1
    3438:	a3a03000 	movge	r3, #0
    343c:	b5843000 	strlt	r3, [r4]
    3440:	a5843000 	strge	r3, [r4]
    3444:	e59f3570 	ldr	r3, [pc, #1392]	; 39bc <_dtoa_r+0x5d4>
    3448:	b3caa102 	biclt	r10, r10, #-2147483648	; 0x80000000
    344c:	e59f2568 	ldr	r2, [pc, #1384]	; 39bc <_dtoa_r+0x5d4>
    3450:	b1a0100a 	movlt	r1, r10
    3454:	e00a3003 	and	r3, r10, r3
    3458:	b58d1014 	strlt	r1, [sp, #20]
    345c:	e1530002 	cmp	r3, r2
    3460:	0a000016 	beq	34c0 <_dtoa_r+0xd8>
    3464:	e28d5010 	add	r5, sp, #16
    3468:	e8950030 	ldm	r5, {r4, r5}
    346c:	e3a02000 	mov	r2, #0
    3470:	e1a00004 	mov	r0, r4
    3474:	e1a01005 	mov	r1, r5
    3478:	e3a03000 	mov	r3, #0
    347c:	eb001706 	bl	909c <__aeabi_dcmpeq>
    3480:	e3500000 	cmp	r0, #0
    3484:	0a00001e 	beq	3504 <_dtoa_r+0x11c>
    3488:	e59d40b0 	ldr	r4, [sp, #176]	; 0xb0
    348c:	e59dc0a8 	ldr	r12, [sp, #168]	; 0xa8
    3490:	e3a03001 	mov	r3, #1
    3494:	e3540000 	cmp	r4, #0
    3498:	e58c3000 	str	r3, [r12]
    349c:	0a00009a 	beq	370c <_dtoa_r+0x324>
    34a0:	e59f44e8 	ldr	r4, [pc, #1256]	; 3990 <_dtoa_r+0x5a8>
    34a4:	e59dc0b0 	ldr	r12, [sp, #176]	; 0xb0
    34a8:	e58c4000 	str	r4, [r12]
    34ac:	e2444001 	sub	r4, r4, #1
    34b0:	e1a00004 	mov	r0, r4
    34b4:	e28dd07c 	add	sp, sp, #124	; 0x7c
    34b8:	e8bd4ff0 	pop	{r4, r5, r6, r7, r8, r9, r10, r11, lr}
    34bc:	e12fff1e 	bx	lr
    34c0:	e59d2010 	ldr	r2, [sp, #16]
    34c4:	e59f34c8 	ldr	r3, [pc, #1224]	; 3994 <_dtoa_r+0x5ac>
    34c8:	e59d40a8 	ldr	r4, [sp, #168]	; 0xa8
    34cc:	e3520000 	cmp	r2, #0
    34d0:	e5843000 	str	r3, [r4]
    34d4:	0a000079 	beq	36c0 <_dtoa_r+0x2d8>
    34d8:	e59f44b8 	ldr	r4, [pc, #1208]	; 3998 <_dtoa_r+0x5b0>
    34dc:	e59dc0b0 	ldr	r12, [sp, #176]	; 0xb0
    34e0:	e35c0000 	cmp	r12, #0
    34e4:	0afffff1 	beq	34b0 <_dtoa_r+0xc8>
    34e8:	e5d43003 	ldrb	r3, [r4, #3]
    34ec:	e59dc0b0 	ldr	r12, [sp, #176]	; 0xb0
    34f0:	e3530000 	cmp	r3, #0
    34f4:	12843008 	addne	r3, r4, #8
    34f8:	02843003 	addeq	r3, r4, #3
    34fc:	e58c3000 	str	r3, [r12]
    3500:	eaffffea 	b	34b0 <_dtoa_r+0xc8>
    3504:	e28d3074 	add	r3, sp, #116	; 0x74
    3508:	e58d3000 	str	r3, [sp]
    350c:	e28d3070 	add	r3, sp, #112	; 0x70
    3510:	e58d3004 	str	r3, [sp, #4]
    3514:	e1a00006 	mov	r0, r6
    3518:	e1a02004 	mov	r2, r4
    351c:	e1a03005 	mov	r3, r5
    3520:	eb000ac8 	bl	6048 <__d2b>
    3524:	e1a0708a 	lsl	r7, r10, #1
    3528:	e1b07aa7 	lsrs	r7, r7, #21
    352c:	e1a0b000 	mov	r11, r0
    3530:	1a00006a 	bne	36e0 <_dtoa_r+0x2f8>
    3534:	e59d8070 	ldr	r8, [sp, #112]	; 0x70
    3538:	e59d7074 	ldr	r7, [sp, #116]	; 0x74
    353c:	e3e03e41 	mvn	r3, #1040	; 0x410
    3540:	e0887007 	add	r7, r8, r7
    3544:	e1570003 	cmp	r7, r3
    3548:	ba0001da 	blt	3cb8 <_dtoa_r+0x8d0>
    354c:	e2870e41 	add	r0, r7, #1040	; 0x410
    3550:	e59dc010 	ldr	r12, [sp, #16]
    3554:	e2800002 	add	r0, r0, #2
    3558:	e1a0003c 	lsr	r0, r12, r0
    355c:	e283301f 	add	r3, r3, #31
    3560:	e0673003 	rsb	r3, r7, r3
    3564:	e180031a 	orr	r0, r0, r10, lsl r3
    3568:	eb001531 	bl	8a34 <__aeabi_ui2d>
    356c:	e3a04001 	mov	r4, #1
    3570:	e58d4060 	str	r4, [sp, #96]	; 0x60
    3574:	e241161f 	sub	r1, r1, #32505856	; 0x1f00000
    3578:	e2477001 	sub	r7, r7, #1
    357c:	e3a02000 	mov	r2, #0
    3580:	e59f3414 	ldr	r3, [pc, #1044]	; 399c <_dtoa_r+0x5b4>
    3584:	eb001465 	bl	8720 <__aeabi_dsub>
    3588:	e28f3ffa 	add	r3, pc, #1000	; 0x3e8
    358c:	e893000c 	ldm	r3, {r2, r3}
    3590:	eb001567 	bl	8b34 <__aeabi_dmul>
    3594:	e28f3ff9 	add	r3, pc, #996	; 0x3e4
    3598:	e893000c 	ldm	r3, {r2, r3}
    359c:	eb001460 	bl	8724 <__adddf3>
    35a0:	e1a04000 	mov	r4, r0
    35a4:	e1a00007 	mov	r0, r7
    35a8:	e1a05001 	mov	r5, r1
    35ac:	eb001529 	bl	8a58 <__aeabi_i2d>
    35b0:	e28f3e3d 	add	r3, pc, #976	; 0x3d0
    35b4:	e893000c 	ldm	r3, {r2, r3}
    35b8:	eb00155d 	bl	8b34 <__aeabi_dmul>
    35bc:	e1a02000 	mov	r2, r0
    35c0:	e1a03001 	mov	r3, r1
    35c4:	e1a00004 	mov	r0, r4
    35c8:	e1a01005 	mov	r1, r5
    35cc:	eb001454 	bl	8724 <__adddf3>
    35d0:	e1a04000 	mov	r4, r0
    35d4:	e1a05001 	mov	r5, r1
    35d8:	eb0016cd 	bl	9114 <__aeabi_d2iz>
    35dc:	e1a01005 	mov	r1, r5
    35e0:	e1a09000 	mov	r9, r0
    35e4:	e3a02000 	mov	r2, #0
    35e8:	e1a00004 	mov	r0, r4
    35ec:	e3a03000 	mov	r3, #0
    35f0:	eb0016af 	bl	90b4 <__aeabi_dcmplt>
    35f4:	e3500000 	cmp	r0, #0
    35f8:	1a0001a6 	bne	3c98 <_dtoa_r+0x8b0>
    35fc:	e3590016 	cmp	r9, #22
    3600:	83a04001 	movhi	r4, #1
    3604:	858d404c 	strhi	r4, [sp, #76]	; 0x4c
    3608:	8a00000a 	bhi	3638 <_dtoa_r+0x250>
    360c:	e59f33a0 	ldr	r3, [pc, #928]	; 39b4 <_dtoa_r+0x5cc>
    3610:	e0833189 	add	r3, r3, r9, lsl #3
    3614:	e8930003 	ldm	r3, {r0, r1}
    3618:	e28d3010 	add	r3, sp, #16
    361c:	e893000c 	ldm	r3, {r2, r3}
    3620:	eb0016b5 	bl	90fc <__aeabi_dcmpgt>
    3624:	e3500000 	cmp	r0, #0
    3628:	13a0c000 	movne	r12, #0
    362c:	158dc04c 	strne	r12, [sp, #76]	; 0x4c
    3630:	058d004c 	streq	r0, [sp, #76]	; 0x4c
    3634:	12499001 	subne	r9, r9, #1
    3638:	e0677008 	rsb	r7, r7, r8
    363c:	e2577001 	subs	r7, r7, #1
    3640:	42677000 	rsbmi	r7, r7, #0
    3644:	43a0c000 	movmi	r12, #0
    3648:	53a04000 	movpl	r4, #0
    364c:	458d702c 	strmi	r7, [sp, #44]	; 0x2c
    3650:	458dc028 	strmi	r12, [sp, #40]	; 0x28
    3654:	558d7028 	strpl	r7, [sp, #40]	; 0x28
    3658:	558d402c 	strpl	r4, [sp, #44]	; 0x2c
    365c:	e3590000 	cmp	r9, #0
    3660:	ba000184 	blt	3c78 <_dtoa_r+0x890>
    3664:	e59dc028 	ldr	r12, [sp, #40]	; 0x28
    3668:	e3a04000 	mov	r4, #0
    366c:	e08cc009 	add	r12, r12, r9
    3670:	e58dc028 	str	r12, [sp, #40]	; 0x28
    3674:	e58d9048 	str	r9, [sp, #72]	; 0x48
    3678:	e58d403c 	str	r4, [sp, #60]	; 0x3c
    367c:	e59d40a0 	ldr	r4, [sp, #160]	; 0xa0
    3680:	e3540009 	cmp	r4, #9
    3684:	8a000022 	bhi	3714 <_dtoa_r+0x32c>
    3688:	e3540005 	cmp	r4, #5
    368c:	c2444004 	subgt	r4, r4, #4
    3690:	c58d40a0 	strgt	r4, [sp, #160]	; 0xa0
    3694:	e59dc0a0 	ldr	r12, [sp, #160]	; 0xa0
    3698:	e24c3002 	sub	r3, r12, #2
    369c:	c3a04000 	movgt	r4, #0
    36a0:	d3a04001 	movle	r4, #1
    36a4:	e3530003 	cmp	r3, #3
    36a8:	979ff103 	ldrls	pc, [pc, r3, lsl #2]
    36ac:	ea00001a 	b	371c <_dtoa_r+0x334>
    36b0:	00003d50 	.word	0x00003d50
    36b4:	000040e8 	.word	0x000040e8
    36b8:	000040dc 	.word	0x000040dc
    36bc:	000040a8 	.word	0x000040a8
    36c0:	e3ca44ff 	bic	r4, r10, #-16777216	; 0xff000000
    36c4:	e3c4460f 	bic	r4, r4, #15728640	; 0xf00000
    36c8:	e59f32c8 	ldr	r3, [pc, #712]	; 3998 <_dtoa_r+0x5b0>
    36cc:	e59f22cc 	ldr	r2, [pc, #716]	; 39a0 <_dtoa_r+0x5b8>
    36d0:	e3540000 	cmp	r4, #0
    36d4:	01a04002 	moveq	r4, r2
    36d8:	11a04003 	movne	r4, r3
    36dc:	eaffff7e 	b	34dc <_dtoa_r+0xf4>
    36e0:	e3c534ff 	bic	r3, r5, #-16777216	; 0xff000000
    36e4:	e3c3360f 	bic	r3, r3, #15728640	; 0xf00000
    36e8:	e1a00004 	mov	r0, r4
    36ec:	e38335ff 	orr	r3, r3, #1069547520	; 0x3fc00000
    36f0:	e2477fff 	sub	r7, r7, #1020	; 0x3fc
    36f4:	e3a04000 	mov	r4, #0
    36f8:	e3831603 	orr	r1, r3, #3145728	; 0x300000
    36fc:	e2477003 	sub	r7, r7, #3
    3700:	e59d8070 	ldr	r8, [sp, #112]	; 0x70
    3704:	e58d4060 	str	r4, [sp, #96]	; 0x60
    3708:	eaffff9b 	b	357c <_dtoa_r+0x194>
    370c:	e59f4290 	ldr	r4, [pc, #656]	; 39a4 <_dtoa_r+0x5bc>
    3710:	eaffff66 	b	34b0 <_dtoa_r+0xc8>
    3714:	e3a04000 	mov	r4, #0
    3718:	e58d40a0 	str	r4, [sp, #160]	; 0xa0
    371c:	e3a04000 	mov	r4, #0
    3720:	e5864044 	str	r4, [r6, #68]	; 0x44
    3724:	e1a00006 	mov	r0, r6
    3728:	e1a01004 	mov	r1, r4
    372c:	eb0007b7 	bl	5610 <_Balloc>
    3730:	e3e0c000 	mvn	r12, #0
    3734:	e58dc044 	str	r12, [sp, #68]	; 0x44
    3738:	e58dc038 	str	r12, [sp, #56]	; 0x38
    373c:	e3a0c001 	mov	r12, #1
    3740:	e58d0024 	str	r0, [sp, #36]	; 0x24
    3744:	e5860040 	str	r0, [r6, #64]	; 0x40
    3748:	e58dc040 	str	r12, [sp, #64]	; 0x40
    374c:	e58d40a4 	str	r4, [sp, #164]	; 0xa4
    3750:	e59d3074 	ldr	r3, [sp, #116]	; 0x74
    3754:	e3530000 	cmp	r3, #0
    3758:	ba0000ab 	blt	3a0c <_dtoa_r+0x624>
    375c:	e359000e 	cmp	r9, #14
    3760:	ca0000a9 	bgt	3a0c <_dtoa_r+0x624>
    3764:	e59d40a4 	ldr	r4, [sp, #164]	; 0xa4
    3768:	e59dc038 	ldr	r12, [sp, #56]	; 0x38
    376c:	e59f3240 	ldr	r3, [pc, #576]	; 39b4 <_dtoa_r+0x5cc>
    3770:	e1a02fa4 	lsr	r2, r4, #31
    3774:	e35c0000 	cmp	r12, #0
    3778:	c3a02000 	movgt	r2, #0
    377c:	d2022001 	andle	r2, r2, #1
    3780:	e0833189 	add	r3, r3, r9, lsl #3
    3784:	e3520000 	cmp	r2, #0
    3788:	e8930006 	ldm	r3, {r1, r2}
    378c:	e58d1018 	str	r1, [sp, #24]
    3790:	e58d201c 	str	r2, [sp, #28]
    3794:	1a000347 	bne	44b8 <_dtoa_r+0x10d0>
    3798:	e28d5010 	add	r5, sp, #16
    379c:	e8950030 	ldm	r5, {r4, r5}
    37a0:	e1a03002 	mov	r3, r2
    37a4:	e1a00004 	mov	r0, r4
    37a8:	e1a02001 	mov	r2, r1
    37ac:	e1a01005 	mov	r1, r5
    37b0:	eb001583 	bl	8dc4 <__aeabi_ddiv>
    37b4:	eb001656 	bl	9114 <__aeabi_d2iz>
    37b8:	e1a07000 	mov	r7, r0
    37bc:	eb0014a5 	bl	8a58 <__aeabi_i2d>
    37c0:	e28d3018 	add	r3, sp, #24
    37c4:	e893000c 	ldm	r3, {r2, r3}
    37c8:	eb0014d9 	bl	8b34 <__aeabi_dmul>
    37cc:	e1a03001 	mov	r3, r1
    37d0:	e1a02000 	mov	r2, r0
    37d4:	e1a01005 	mov	r1, r5
    37d8:	e1a00004 	mov	r0, r4
    37dc:	eb0013cf 	bl	8720 <__aeabi_dsub>
    37e0:	e59dc024 	ldr	r12, [sp, #36]	; 0x24
    37e4:	e2873030 	add	r3, r7, #48	; 0x30
    37e8:	e4cc3001 	strb	r3, [r12], #1
    37ec:	e58dc030 	str	r12, [sp, #48]	; 0x30
    37f0:	e59dc038 	ldr	r12, [sp, #56]	; 0x38
    37f4:	e35c0001 	cmp	r12, #1
    37f8:	e1a04000 	mov	r4, r0
    37fc:	e1a05001 	mov	r5, r1
    3800:	e59dc030 	ldr	r12, [sp, #48]	; 0x30
    3804:	0a000039 	beq	38f0 <_dtoa_r+0x508>
    3808:	e3a02000 	mov	r2, #0
    380c:	e59f31ac 	ldr	r3, [pc, #428]	; 39c0 <_dtoa_r+0x5d8>
    3810:	eb0014c7 	bl	8b34 <__aeabi_dmul>
    3814:	e3a02000 	mov	r2, #0
    3818:	e3a03000 	mov	r3, #0
    381c:	e1a04000 	mov	r4, r0
    3820:	e1a05001 	mov	r5, r1
    3824:	eb00161c 	bl	909c <__aeabi_dcmpeq>
    3828:	e3500000 	cmp	r0, #0
    382c:	1a00047f 	bne	4a30 <_dtoa_r+0x1648>
    3830:	e59dc024 	ldr	r12, [sp, #36]	; 0x24
    3834:	e59d1038 	ldr	r1, [sp, #56]	; 0x38
    3838:	e08c8001 	add	r8, r12, r1
    383c:	e58d9020 	str	r9, [sp, #32]
    3840:	e58d8010 	str	r8, [sp, #16]
    3844:	e28ca002 	add	r10, r12, #2
    3848:	e28d9018 	add	r9, sp, #24
    384c:	e8990300 	ldm	r9, {r8, r9}
    3850:	e58d6028 	str	r6, [sp, #40]	; 0x28
    3854:	ea000008 	b	387c <_dtoa_r+0x494>
    3858:	eb0014b5 	bl	8b34 <__aeabi_dmul>
    385c:	e3a02000 	mov	r2, #0
    3860:	e3a03000 	mov	r3, #0
    3864:	e1a04000 	mov	r4, r0
    3868:	e1a05001 	mov	r5, r1
    386c:	eb00160a 	bl	909c <__aeabi_dcmpeq>
    3870:	e3500000 	cmp	r0, #0
    3874:	e28aa001 	add	r10, r10, #1
    3878:	1a0003af 	bne	473c <_dtoa_r+0x1354>
    387c:	e1a02008 	mov	r2, r8
    3880:	e1a03009 	mov	r3, r9
    3884:	e1a00004 	mov	r0, r4
    3888:	e1a01005 	mov	r1, r5
    388c:	eb00154c 	bl	8dc4 <__aeabi_ddiv>
    3890:	eb00161f 	bl	9114 <__aeabi_d2iz>
    3894:	e1a07000 	mov	r7, r0
    3898:	eb00146e 	bl	8a58 <__aeabi_i2d>
    389c:	e1a02008 	mov	r2, r8
    38a0:	e1a03009 	mov	r3, r9
    38a4:	eb0014a2 	bl	8b34 <__aeabi_dmul>
    38a8:	e1a02000 	mov	r2, r0
    38ac:	e1a03001 	mov	r3, r1
    38b0:	e1a00004 	mov	r0, r4
    38b4:	e1a01005 	mov	r1, r5
    38b8:	eb001398 	bl	8720 <__aeabi_dsub>
    38bc:	e59dc010 	ldr	r12, [sp, #16]
    38c0:	e15a000c 	cmp	r10, r12
    38c4:	e287c030 	add	r12, r7, #48	; 0x30
    38c8:	e1a04000 	mov	r4, r0
    38cc:	e1a05001 	mov	r5, r1
    38d0:	e3a02000 	mov	r2, #0
    38d4:	e59f30e4 	ldr	r3, [pc, #228]	; 39c0 <_dtoa_r+0x5d8>
    38d8:	e54ac001 	strb	r12, [r10, #-1]
    38dc:	e1a0600a 	mov	r6, r10
    38e0:	1affffdc 	bne	3858 <_dtoa_r+0x470>
    38e4:	e59d9020 	ldr	r9, [sp, #32]
    38e8:	e59d6028 	ldr	r6, [sp, #40]	; 0x28
    38ec:	e1a0c00a 	mov	r12, r10
    38f0:	e1a02004 	mov	r2, r4
    38f4:	e1a03005 	mov	r3, r5
    38f8:	e1a00004 	mov	r0, r4
    38fc:	e1a01005 	mov	r1, r5
    3900:	e58dc008 	str	r12, [sp, #8]
    3904:	eb001386 	bl	8724 <__adddf3>
    3908:	e1a04000 	mov	r4, r0
    390c:	e1a05001 	mov	r5, r1
    3910:	e1a02004 	mov	r2, r4
    3914:	e28d1018 	add	r1, sp, #24
    3918:	e8910003 	ldm	r1, {r0, r1}
    391c:	e1a03005 	mov	r3, r5
    3920:	eb0015e3 	bl	90b4 <__aeabi_dcmplt>
    3924:	e3500000 	cmp	r0, #0
    3928:	e59dc008 	ldr	r12, [sp, #8]
    392c:	1a00000a 	bne	395c <_dtoa_r+0x574>
    3930:	e28d1018 	add	r1, sp, #24
    3934:	e8910003 	ldm	r1, {r0, r1}
    3938:	e1a02004 	mov	r2, r4
    393c:	e1a03005 	mov	r3, r5
    3940:	e58dc008 	str	r12, [sp, #8]
    3944:	eb0015d4 	bl	909c <__aeabi_dcmpeq>
    3948:	e3500000 	cmp	r0, #0
    394c:	e59dc008 	ldr	r12, [sp, #8]
    3950:	0a00037c 	beq	4748 <_dtoa_r+0x1360>
    3954:	e3170001 	tst	r7, #1
    3958:	0a00037a 	beq	4748 <_dtoa_r+0x1360>
    395c:	e55c8001 	ldrb	r8, [r12, #-1]
    3960:	e59d4024 	ldr	r4, [sp, #36]	; 0x24
    3964:	e58d9064 	str	r9, [sp, #100]	; 0x64
    3968:	e1a0900c 	mov	r9, r12
    396c:	e59d1030 	ldr	r1, [sp, #48]	; 0x30
    3970:	ea000017 	b	39d4 <_dtoa_r+0x5ec>
    3974:	e1a00000 	nop			; (mov r0, r0)
    3978:	636f4361 	.word	0x636f4361
    397c:	3fd287a7 	.word	0x3fd287a7
    3980:	8b60c8b3 	.word	0x8b60c8b3
    3984:	3fc68a28 	.word	0x3fc68a28
    3988:	509f79fb 	.word	0x509f79fb
    398c:	3fd34413 	.word	0x3fd34413
    3990:	00009ea1 	.word	0x00009ea1
    3994:	0000270f 	.word	0x0000270f
    3998:	00009eb0 	.word	0x00009eb0
    399c:	3ff80000 	.word	0x3ff80000
    39a0:	00009ea4 	.word	0x00009ea4
    39a4:	00009ea0 	.word	0x00009ea0
    39a8:	fffffbee 	.word	0xfffffbee
    39ac:	3ff00000 	.word	0x3ff00000
    39b0:	00009fc0 	.word	0x00009fc0
    39b4:	00009ed0 	.word	0x00009ed0
    39b8:	40140000 	.word	0x40140000
    39bc:	7ff00000 	.word	0x7ff00000
    39c0:	40240000 	.word	0x40240000
    39c4:	401c0000 	.word	0x401c0000
    39c8:	3fe00000 	.word	0x3fe00000
    39cc:	e5598002 	ldrb	r8, [r9, #-2]
    39d0:	e1a09003 	mov	r9, r3
    39d4:	e3580039 	cmp	r8, #57	; 0x39
    39d8:	e1a02009 	mov	r2, r9
    39dc:	e2493001 	sub	r3, r9, #1
    39e0:	1a0003c2 	bne	48f0 <_dtoa_r+0x1508>
    39e4:	e1590001 	cmp	r9, r1
    39e8:	1afffff7 	bne	39cc <_dtoa_r+0x5e4>
    39ec:	e58d2024 	str	r2, [sp, #36]	; 0x24
    39f0:	e59dc064 	ldr	r12, [sp, #100]	; 0x64
    39f4:	e3a02030 	mov	r2, #48	; 0x30
    39f8:	e5c32000 	strb	r2, [r3]
    39fc:	e28c9001 	add	r9, r12, #1
    3a00:	e3a08031 	mov	r8, #49	; 0x31
    3a04:	e5c38000 	strb	r8, [r3]
    3a08:	ea00008b 	b	3c3c <_dtoa_r+0x854>
    3a0c:	e59d4040 	ldr	r4, [sp, #64]	; 0x40
    3a10:	e3540000 	cmp	r4, #0
    3a14:	1a0000ac 	bne	3ccc <_dtoa_r+0x8e4>
    3a18:	e59d503c 	ldr	r5, [sp, #60]	; 0x3c
    3a1c:	e59d402c 	ldr	r4, [sp, #44]	; 0x2c
    3a20:	e59da040 	ldr	r10, [sp, #64]	; 0x40
    3a24:	e59dc028 	ldr	r12, [sp, #40]	; 0x28
    3a28:	e35c0000 	cmp	r12, #0
    3a2c:	c3540000 	cmpgt	r4, #0
    3a30:	da000009 	ble	3a5c <_dtoa_r+0x674>
    3a34:	e1a0300c 	mov	r3, r12
    3a38:	e59dc02c 	ldr	r12, [sp, #44]	; 0x2c
    3a3c:	e1530004 	cmp	r3, r4
    3a40:	a1a03004 	movge	r3, r4
    3a44:	e063c00c 	rsb	r12, r3, r12
    3a48:	e58dc02c 	str	r12, [sp, #44]	; 0x2c
    3a4c:	e59dc028 	ldr	r12, [sp, #40]	; 0x28
    3a50:	e063c00c 	rsb	r12, r3, r12
    3a54:	e58dc028 	str	r12, [sp, #40]	; 0x28
    3a58:	e0634004 	rsb	r4, r3, r4
    3a5c:	e59dc03c 	ldr	r12, [sp, #60]	; 0x3c
    3a60:	e35c0000 	cmp	r12, #0
    3a64:	da000015 	ble	3ac0 <_dtoa_r+0x6d8>
    3a68:	e59dc040 	ldr	r12, [sp, #64]	; 0x40
    3a6c:	e35c0000 	cmp	r12, #0
    3a70:	0a00032b 	beq	4724 <_dtoa_r+0x133c>
    3a74:	e3550000 	cmp	r5, #0
    3a78:	da00000d 	ble	3ab4 <_dtoa_r+0x6cc>
    3a7c:	e1a0100a 	mov	r1, r10
    3a80:	e1a02005 	mov	r2, r5
    3a84:	e1a00006 	mov	r0, r6
    3a88:	eb000838 	bl	5b70 <__pow5mult>
    3a8c:	e1a0a000 	mov	r10, r0
    3a90:	e1a0200b 	mov	r2, r11
    3a94:	e1a0100a 	mov	r1, r10
    3a98:	e1a00006 	mov	r0, r6
    3a9c:	eb0007ba 	bl	598c <__multiply>
    3aa0:	e1a0100b 	mov	r1, r11
    3aa4:	e1a07000 	mov	r7, r0
    3aa8:	e1a00006 	mov	r0, r6
    3aac:	eb0006fa 	bl	569c <_Bfree>
    3ab0:	e1a0b007 	mov	r11, r7
    3ab4:	e59dc03c 	ldr	r12, [sp, #60]	; 0x3c
    3ab8:	e05c2005 	subs	r2, r12, r5
    3abc:	1a00035d 	bne	4838 <_dtoa_r+0x1450>
    3ac0:	e1a00006 	mov	r0, r6
    3ac4:	e3a01001 	mov	r1, #1
    3ac8:	eb0007a6 	bl	5968 <__i2b>
    3acc:	e59dc048 	ldr	r12, [sp, #72]	; 0x48
    3ad0:	e35c0000 	cmp	r12, #0
    3ad4:	e1a07000 	mov	r7, r0
    3ad8:	da000004 	ble	3af0 <_dtoa_r+0x708>
    3adc:	e1a01007 	mov	r1, r7
    3ae0:	e1a00006 	mov	r0, r6
    3ae4:	e1a0200c 	mov	r2, r12
    3ae8:	eb000820 	bl	5b70 <__pow5mult>
    3aec:	e1a07000 	mov	r7, r0
    3af0:	e59dc0a0 	ldr	r12, [sp, #160]	; 0xa0
    3af4:	e35c0001 	cmp	r12, #1
    3af8:	da00027e 	ble	44f8 <_dtoa_r+0x1110>
    3afc:	e3a05000 	mov	r5, #0
    3b00:	e59dc048 	ldr	r12, [sp, #72]	; 0x48
    3b04:	e35c0000 	cmp	r12, #0
    3b08:	03a00001 	moveq	r0, #1
    3b0c:	1a000247 	bne	4430 <_dtoa_r+0x1048>
    3b10:	e59dc028 	ldr	r12, [sp, #40]	; 0x28
    3b14:	e080300c 	add	r3, r0, r12
    3b18:	e213301f 	ands	r3, r3, #31
    3b1c:	0a0001d4 	beq	4274 <_dtoa_r+0xe8c>
    3b20:	e2632020 	rsb	r2, r3, #32
    3b24:	e3520004 	cmp	r2, #4
    3b28:	da0003dc 	ble	4aa0 <_dtoa_r+0x16b8>
    3b2c:	e263301c 	rsb	r3, r3, #28
    3b30:	e59dc02c 	ldr	r12, [sp, #44]	; 0x2c
    3b34:	e08cc003 	add	r12, r12, r3
    3b38:	e58dc02c 	str	r12, [sp, #44]	; 0x2c
    3b3c:	e59dc028 	ldr	r12, [sp, #40]	; 0x28
    3b40:	e08cc003 	add	r12, r12, r3
    3b44:	e58dc028 	str	r12, [sp, #40]	; 0x28
    3b48:	e0844003 	add	r4, r4, r3
    3b4c:	e59dc02c 	ldr	r12, [sp, #44]	; 0x2c
    3b50:	e35c0000 	cmp	r12, #0
    3b54:	da000004 	ble	3b6c <_dtoa_r+0x784>
    3b58:	e1a0100b 	mov	r1, r11
    3b5c:	e1a00006 	mov	r0, r6
    3b60:	e1a0200c 	mov	r2, r12
    3b64:	eb00083e 	bl	5c64 <__lshift>
    3b68:	e1a0b000 	mov	r11, r0
    3b6c:	e59dc028 	ldr	r12, [sp, #40]	; 0x28
    3b70:	e35c0000 	cmp	r12, #0
    3b74:	da000004 	ble	3b8c <_dtoa_r+0x7a4>
    3b78:	e1a01007 	mov	r1, r7
    3b7c:	e1a00006 	mov	r0, r6
    3b80:	e1a0200c 	mov	r2, r12
    3b84:	eb000836 	bl	5c64 <__lshift>
    3b88:	e1a07000 	mov	r7, r0
    3b8c:	e59dc04c 	ldr	r12, [sp, #76]	; 0x4c
    3b90:	e35c0000 	cmp	r12, #0
    3b94:	1a00022b 	bne	4448 <_dtoa_r+0x1060>
    3b98:	e59dc0a0 	ldr	r12, [sp, #160]	; 0xa0
    3b9c:	e59d1038 	ldr	r1, [sp, #56]	; 0x38
    3ba0:	e35c0002 	cmp	r12, #2
    3ba4:	d3a03000 	movle	r3, #0
    3ba8:	c3a03001 	movgt	r3, #1
    3bac:	e3510000 	cmp	r1, #0
    3bb0:	c3a03000 	movgt	r3, #0
    3bb4:	e3530000 	cmp	r3, #0
    3bb8:	0a000170 	beq	4180 <_dtoa_r+0xd98>
    3bbc:	e59d4038 	ldr	r4, [sp, #56]	; 0x38
    3bc0:	e3540000 	cmp	r4, #0
    3bc4:	1a000168 	bne	416c <_dtoa_r+0xd84>
    3bc8:	e1a01007 	mov	r1, r7
    3bcc:	e3a02005 	mov	r2, #5
    3bd0:	e1a03004 	mov	r3, r4
    3bd4:	e1a00006 	mov	r0, r6
    3bd8:	eb0006b6 	bl	56b8 <__multadd>
    3bdc:	e1a07000 	mov	r7, r0
    3be0:	e1a01007 	mov	r1, r7
    3be4:	e1a0000b 	mov	r0, r11
    3be8:	eb00085e 	bl	5d68 <__mcmp>
    3bec:	e3500000 	cmp	r0, #0
    3bf0:	da00015d 	ble	416c <_dtoa_r+0xd84>
    3bf4:	e59d3024 	ldr	r3, [sp, #36]	; 0x24
    3bf8:	e3a02031 	mov	r2, #49	; 0x31
    3bfc:	e4c32001 	strb	r2, [r3], #1
    3c00:	e59d4024 	ldr	r4, [sp, #36]	; 0x24
    3c04:	e58d3024 	str	r3, [sp, #36]	; 0x24
    3c08:	e2899001 	add	r9, r9, #1
    3c0c:	e3a05000 	mov	r5, #0
    3c10:	e1a00006 	mov	r0, r6
    3c14:	e1a01007 	mov	r1, r7
    3c18:	eb00069f 	bl	569c <_Bfree>
    3c1c:	e35a0000 	cmp	r10, #0
    3c20:	0a000005 	beq	3c3c <_dtoa_r+0x854>
    3c24:	e155000a 	cmp	r5, r10
    3c28:	13550000 	cmpne	r5, #0
    3c2c:	1a000198 	bne	4294 <_dtoa_r+0xeac>
    3c30:	e1a00006 	mov	r0, r6
    3c34:	e1a0100a 	mov	r1, r10
    3c38:	eb000697 	bl	569c <_Bfree>
    3c3c:	e1a00006 	mov	r0, r6
    3c40:	e1a0100b 	mov	r1, r11
    3c44:	eb000694 	bl	569c <_Bfree>
    3c48:	e59dc0b0 	ldr	r12, [sp, #176]	; 0xb0
    3c4c:	e35c0000 	cmp	r12, #0
    3c50:	e59dc024 	ldr	r12, [sp, #36]	; 0x24
    3c54:	e3a02000 	mov	r2, #0
    3c58:	e5cc2000 	strb	r2, [r12]
    3c5c:	e59dc0a8 	ldr	r12, [sp, #168]	; 0xa8
    3c60:	e2893001 	add	r3, r9, #1
    3c64:	e58c3000 	str	r3, [r12]
    3c68:	159dc024 	ldrne	r12, [sp, #36]	; 0x24
    3c6c:	159d10b0 	ldrne	r1, [sp, #176]	; 0xb0
    3c70:	1581c000 	strne	r12, [r1]
    3c74:	eafffe0d 	b	34b0 <_dtoa_r+0xc8>
    3c78:	e59dc02c 	ldr	r12, [sp, #44]	; 0x2c
    3c7c:	e069c00c 	rsb	r12, r9, r12
    3c80:	e58dc02c 	str	r12, [sp, #44]	; 0x2c
    3c84:	e2694000 	rsb	r4, r9, #0
    3c88:	e3a0c000 	mov	r12, #0
    3c8c:	e58d403c 	str	r4, [sp, #60]	; 0x3c
    3c90:	e58dc048 	str	r12, [sp, #72]	; 0x48
    3c94:	eafffe78 	b	367c <_dtoa_r+0x294>
    3c98:	e1a00009 	mov	r0, r9
    3c9c:	eb00136d 	bl	8a58 <__aeabi_i2d>
    3ca0:	e1a02004 	mov	r2, r4
    3ca4:	e1a03005 	mov	r3, r5
    3ca8:	eb0014fb 	bl	909c <__aeabi_dcmpeq>
    3cac:	e3500000 	cmp	r0, #0
    3cb0:	02499001 	subeq	r9, r9, #1
    3cb4:	eafffe50 	b	35fc <_dtoa_r+0x214>
    3cb8:	e51f0318 	ldr	r0, [pc, #-792]	; 39a8 <_dtoa_r+0x5c0>
    3cbc:	e59d1010 	ldr	r1, [sp, #16]
    3cc0:	e0670000 	rsb	r0, r7, r0
    3cc4:	e1a00011 	lsl	r0, r1, r0
    3cc8:	eafffe26 	b	3568 <_dtoa_r+0x180>
    3ccc:	e59dc0a0 	ldr	r12, [sp, #160]	; 0xa0
    3cd0:	e35c0001 	cmp	r12, #1
    3cd4:	da0002dc 	ble	484c <_dtoa_r+0x1464>
    3cd8:	e59dc038 	ldr	r12, [sp, #56]	; 0x38
    3cdc:	e59d403c 	ldr	r4, [sp, #60]	; 0x3c
    3ce0:	e24c5001 	sub	r5, r12, #1
    3ce4:	e1540005 	cmp	r4, r5
    3ce8:	b59dc03c 	ldrlt	r12, [sp, #60]	; 0x3c
    3cec:	b59d4048 	ldrlt	r4, [sp, #72]	; 0x48
    3cf0:	b06c3005 	rsblt	r3, r12, r5
    3cf4:	e59dc038 	ldr	r12, [sp, #56]	; 0x38
    3cf8:	b0844003 	addlt	r4, r4, r3
    3cfc:	a0655004 	rsbge	r5, r5, r4
    3d00:	b58d4048 	strlt	r4, [sp, #72]	; 0x48
    3d04:	b58d503c 	strlt	r5, [sp, #60]	; 0x3c
    3d08:	b3a05000 	movlt	r5, #0
    3d0c:	e35c0000 	cmp	r12, #0
    3d10:	b59d102c 	ldrlt	r1, [sp, #44]	; 0x2c
    3d14:	a59d402c 	ldrge	r4, [sp, #44]	; 0x2c
    3d18:	a59d3038 	ldrge	r3, [sp, #56]	; 0x38
    3d1c:	b06c4001 	rsblt	r4, r12, r1
    3d20:	b3a03000 	movlt	r3, #0
    3d24:	e59dc02c 	ldr	r12, [sp, #44]	; 0x2c
    3d28:	e08cc003 	add	r12, r12, r3
    3d2c:	e58dc02c 	str	r12, [sp, #44]	; 0x2c
    3d30:	e59dc028 	ldr	r12, [sp, #40]	; 0x28
    3d34:	e1a00006 	mov	r0, r6
    3d38:	e08cc003 	add	r12, r12, r3
    3d3c:	e3a01001 	mov	r1, #1
    3d40:	e58dc028 	str	r12, [sp, #40]	; 0x28
    3d44:	eb000707 	bl	5968 <__i2b>
    3d48:	e1a0a000 	mov	r10, r0
    3d4c:	eaffff34 	b	3a24 <_dtoa_r+0x63c>
    3d50:	e3a0c000 	mov	r12, #0
    3d54:	e58dc040 	str	r12, [sp, #64]	; 0x40
    3d58:	e59d10a4 	ldr	r1, [sp, #164]	; 0xa4
    3d5c:	e3510000 	cmp	r1, #0
    3d60:	da000262 	ble	46f0 <_dtoa_r+0x1308>
    3d64:	e58d1044 	str	r1, [sp, #68]	; 0x44
    3d68:	e58d1038 	str	r1, [sp, #56]	; 0x38
    3d6c:	e1a08001 	mov	r8, r1
    3d70:	e351000e 	cmp	r1, #14
    3d74:	83a04000 	movhi	r4, #0
    3d78:	92044001 	andls	r4, r4, #1
    3d7c:	e3a01000 	mov	r1, #0
    3d80:	e3580017 	cmp	r8, #23
    3d84:	e5861044 	str	r1, [r6, #68]	; 0x44
    3d88:	9a000008 	bls	3db0 <_dtoa_r+0x9c8>
    3d8c:	e3a02001 	mov	r2, #1
    3d90:	e3a03004 	mov	r3, #4
    3d94:	e1a03083 	lsl	r3, r3, #1
    3d98:	e2830014 	add	r0, r3, #20
    3d9c:	e1500008 	cmp	r0, r8
    3da0:	e1a01002 	mov	r1, r2
    3da4:	e2822001 	add	r2, r2, #1
    3da8:	9afffff9 	bls	3d94 <_dtoa_r+0x9ac>
    3dac:	e5861044 	str	r1, [r6, #68]	; 0x44
    3db0:	e1a00006 	mov	r0, r6
    3db4:	eb000615 	bl	5610 <_Balloc>
    3db8:	e3540000 	cmp	r4, #0
    3dbc:	e58d0024 	str	r0, [sp, #36]	; 0x24
    3dc0:	e5860040 	str	r0, [r6, #64]	; 0x40
    3dc4:	0afffe61 	beq	3750 <_dtoa_r+0x368>
    3dc8:	e3590000 	cmp	r9, #0
    3dcc:	da000134 	ble	42a4 <_dtoa_r+0xebc>
    3dd0:	e51f2424 	ldr	r2, [pc, #-1060]	; 39b4 <_dtoa_r+0x5cc>
    3dd4:	e209300f 	and	r3, r9, #15
    3dd8:	e1a07249 	asr	r7, r9, #4
    3ddc:	e0823183 	add	r3, r2, r3, lsl #3
    3de0:	e3170010 	tst	r7, #16
    3de4:	e8930030 	ldm	r3, {r4, r5}
    3de8:	0a000123 	beq	427c <_dtoa_r+0xe94>
    3dec:	e51f3444 	ldr	r3, [pc, #-1092]	; 39b0 <_dtoa_r+0x5c8>
    3df0:	e28d1010 	add	r1, sp, #16
    3df4:	e8910003 	ldm	r1, {r0, r1}
    3df8:	e2833020 	add	r3, r3, #32
    3dfc:	e893000c 	ldm	r3, {r2, r3}
    3e00:	eb0013ef 	bl	8dc4 <__aeabi_ddiv>
    3e04:	e58d0030 	str	r0, [sp, #48]	; 0x30
    3e08:	e58d1034 	str	r1, [sp, #52]	; 0x34
    3e0c:	e207700f 	and	r7, r7, #15
    3e10:	e3a08003 	mov	r8, #3
    3e14:	e3570000 	cmp	r7, #0
    3e18:	0a00000c 	beq	3e50 <_dtoa_r+0xa68>
    3e1c:	e51fa474 	ldr	r10, [pc, #-1140]	; 39b0 <_dtoa_r+0x5c8>
    3e20:	e1a00004 	mov	r0, r4
    3e24:	e1a01005 	mov	r1, r5
    3e28:	e3170001 	tst	r7, #1
    3e2c:	0a000002 	beq	3e3c <_dtoa_r+0xa54>
    3e30:	e89a000c 	ldm	r10, {r2, r3}
    3e34:	eb00133e 	bl	8b34 <__aeabi_dmul>
    3e38:	e2888001 	add	r8, r8, #1
    3e3c:	e1b070c7 	asrs	r7, r7, #1
    3e40:	e28aa008 	add	r10, r10, #8
    3e44:	1afffff7 	bne	3e28 <_dtoa_r+0xa40>
    3e48:	e1a04000 	mov	r4, r0
    3e4c:	e1a05001 	mov	r5, r1
    3e50:	e28d1030 	add	r1, sp, #48	; 0x30
    3e54:	e8910003 	ldm	r1, {r0, r1}
    3e58:	e1a02004 	mov	r2, r4
    3e5c:	e1a03005 	mov	r3, r5
    3e60:	eb0013d7 	bl	8dc4 <__aeabi_ddiv>
    3e64:	e58d0030 	str	r0, [sp, #48]	; 0x30
    3e68:	e58d1034 	str	r1, [sp, #52]	; 0x34
    3e6c:	e59d404c 	ldr	r4, [sp, #76]	; 0x4c
    3e70:	e3540000 	cmp	r4, #0
    3e74:	0a000006 	beq	3e94 <_dtoa_r+0xaac>
    3e78:	e28d1030 	add	r1, sp, #48	; 0x30
    3e7c:	e8910003 	ldm	r1, {r0, r1}
    3e80:	e3a02000 	mov	r2, #0
    3e84:	e51f34e0 	ldr	r3, [pc, #-1248]	; 39ac <_dtoa_r+0x5c4>
    3e88:	eb001489 	bl	90b4 <__aeabi_dcmplt>
    3e8c:	e3500000 	cmp	r0, #0
    3e90:	1a000235 	bne	476c <_dtoa_r+0x1384>
    3e94:	e1a00008 	mov	r0, r8
    3e98:	eb0012ee 	bl	8a58 <__aeabi_i2d>
    3e9c:	e28d3030 	add	r3, sp, #48	; 0x30
    3ea0:	e893000c 	ldm	r3, {r2, r3}
    3ea4:	eb001322 	bl	8b34 <__aeabi_dmul>
    3ea8:	e3a02000 	mov	r2, #0
    3eac:	e51f34f0 	ldr	r3, [pc, #-1264]	; 39c4 <_dtoa_r+0x5dc>
    3eb0:	eb00121b 	bl	8724 <__adddf3>
    3eb4:	e59dc038 	ldr	r12, [sp, #56]	; 0x38
    3eb8:	e35c0000 	cmp	r12, #0
    3ebc:	e1a04000 	mov	r4, r0
    3ec0:	e241550d 	sub	r5, r1, #54525952	; 0x3400000
    3ec4:	0a000094 	beq	411c <_dtoa_r+0xd34>
    3ec8:	e58d9064 	str	r9, [sp, #100]	; 0x64
    3ecc:	e59da038 	ldr	r10, [sp, #56]	; 0x38
    3ed0:	e59dc040 	ldr	r12, [sp, #64]	; 0x40
    3ed4:	e35c0000 	cmp	r12, #0
    3ed8:	0a00010f 	beq	431c <_dtoa_r+0xf34>
    3edc:	e51f3530 	ldr	r3, [pc, #-1328]	; 39b4 <_dtoa_r+0x5cc>
    3ee0:	e083318a 	add	r3, r3, r10, lsl #3
    3ee4:	e913000c 	ldmdb	r3, {r2, r3}
    3ee8:	e3a00000 	mov	r0, #0
    3eec:	e51f152c 	ldr	r1, [pc, #-1324]	; 39c8 <_dtoa_r+0x5e0>
    3ef0:	eb0013b3 	bl	8dc4 <__aeabi_ddiv>
    3ef4:	e1a02004 	mov	r2, r4
    3ef8:	e1a03005 	mov	r3, r5
    3efc:	eb001207 	bl	8720 <__aeabi_dsub>
    3f00:	e58d0050 	str	r0, [sp, #80]	; 0x50
    3f04:	e58d1054 	str	r1, [sp, #84]	; 0x54
    3f08:	e28d1030 	add	r1, sp, #48	; 0x30
    3f0c:	e8910003 	ldm	r1, {r0, r1}
    3f10:	eb00147f 	bl	9114 <__aeabi_d2iz>
    3f14:	e1a07000 	mov	r7, r0
    3f18:	eb0012ce 	bl	8a58 <__aeabi_i2d>
    3f1c:	e1a02000 	mov	r2, r0
    3f20:	e1a03001 	mov	r3, r1
    3f24:	e28d1030 	add	r1, sp, #48	; 0x30
    3f28:	e8910003 	ldm	r1, {r0, r1}
    3f2c:	eb0011fb 	bl	8720 <__aeabi_dsub>
    3f30:	e2877030 	add	r7, r7, #48	; 0x30
    3f34:	e59dc024 	ldr	r12, [sp, #36]	; 0x24
    3f38:	e20780ff 	and	r8, r7, #255	; 0xff
    3f3c:	e4cc8001 	strb	r8, [r12], #1
    3f40:	e1a04000 	mov	r4, r0
    3f44:	e1a05001 	mov	r5, r1
    3f48:	e1a02004 	mov	r2, r4
    3f4c:	e28d1050 	add	r1, sp, #80	; 0x50
    3f50:	e8910003 	ldm	r1, {r0, r1}
    3f54:	e1a03005 	mov	r3, r5
    3f58:	e58dc030 	str	r12, [sp, #48]	; 0x30
    3f5c:	eb001466 	bl	90fc <__aeabi_dcmpgt>
    3f60:	e3500000 	cmp	r0, #0
    3f64:	e59dc030 	ldr	r12, [sp, #48]	; 0x30
    3f68:	1a0002c7 	bne	4a8c <_dtoa_r+0x16a4>
    3f6c:	e1a02004 	mov	r2, r4
    3f70:	e1a03005 	mov	r3, r5
    3f74:	e3a00000 	mov	r0, #0
    3f78:	e51f15d4 	ldr	r1, [pc, #-1492]	; 39ac <_dtoa_r+0x5c4>
    3f7c:	e58dc008 	str	r12, [sp, #8]
    3f80:	eb0011e6 	bl	8720 <__aeabi_dsub>
    3f84:	e1a02000 	mov	r2, r0
    3f88:	e1a03001 	mov	r3, r1
    3f8c:	e28d1050 	add	r1, sp, #80	; 0x50
    3f90:	e8910003 	ldm	r1, {r0, r1}
    3f94:	eb001458 	bl	90fc <__aeabi_dcmpgt>
    3f98:	e3500000 	cmp	r0, #0
    3f9c:	e59dc008 	ldr	r12, [sp, #8]
    3fa0:	1a000250 	bne	48e8 <_dtoa_r+0x1500>
    3fa4:	e35a0001 	cmp	r10, #1
    3fa8:	dafffde8 	ble	3750 <_dtoa_r+0x368>
    3fac:	e59dc024 	ldr	r12, [sp, #36]	; 0x24
    3fb0:	e59d7030 	ldr	r7, [sp, #48]	; 0x30
    3fb4:	e08ca00a 	add	r10, r12, r10
    3fb8:	e58d906c 	str	r9, [sp, #108]	; 0x6c
    3fbc:	e58d6068 	str	r6, [sp, #104]	; 0x68
    3fc0:	e1a0900a 	mov	r9, r10
    3fc4:	e58db058 	str	r11, [sp, #88]	; 0x58
    3fc8:	e1a0a007 	mov	r10, r7
    3fcc:	e28d7050 	add	r7, sp, #80	; 0x50
    3fd0:	e89700c0 	ldm	r7, {r6, r7}
    3fd4:	ea000007 	b	3ff8 <_dtoa_r+0xc10>
    3fd8:	eb0011d0 	bl	8720 <__aeabi_dsub>
    3fdc:	e1a02006 	mov	r2, r6
    3fe0:	e1a03007 	mov	r3, r7
    3fe4:	eb001432 	bl	90b4 <__aeabi_dcmplt>
    3fe8:	e3500000 	cmp	r0, #0
    3fec:	1a00023a 	bne	48dc <_dtoa_r+0x14f4>
    3ff0:	e15a0009 	cmp	r10, r9
    3ff4:	0a000241 	beq	4900 <_dtoa_r+0x1518>
    3ff8:	e3a02000 	mov	r2, #0
    3ffc:	e51f3644 	ldr	r3, [pc, #-1604]	; 39c0 <_dtoa_r+0x5d8>
    4000:	e1a00006 	mov	r0, r6
    4004:	e1a01007 	mov	r1, r7
    4008:	eb0012c9 	bl	8b34 <__aeabi_dmul>
    400c:	e3a02000 	mov	r2, #0
    4010:	e51f3658 	ldr	r3, [pc, #-1624]	; 39c0 <_dtoa_r+0x5d8>
    4014:	e1a06000 	mov	r6, r0
    4018:	e1a07001 	mov	r7, r1
    401c:	e1a00004 	mov	r0, r4
    4020:	e1a01005 	mov	r1, r5
    4024:	eb0012c2 	bl	8b34 <__aeabi_dmul>
    4028:	e1a05001 	mov	r5, r1
    402c:	e1a04000 	mov	r4, r0
    4030:	eb001437 	bl	9114 <__aeabi_d2iz>
    4034:	e1a08000 	mov	r8, r0
    4038:	eb001286 	bl	8a58 <__aeabi_i2d>
    403c:	e1a02000 	mov	r2, r0
    4040:	e1a03001 	mov	r3, r1
    4044:	e1a00004 	mov	r0, r4
    4048:	e1a01005 	mov	r1, r5
    404c:	eb0011b3 	bl	8720 <__aeabi_dsub>
    4050:	e2888030 	add	r8, r8, #48	; 0x30
    4054:	e20880ff 	and	r8, r8, #255	; 0xff
    4058:	e4ca8001 	strb	r8, [r10], #1
    405c:	e1a02006 	mov	r2, r6
    4060:	e1a03007 	mov	r3, r7
    4064:	e1a05001 	mov	r5, r1
    4068:	e1a04000 	mov	r4, r0
    406c:	eb001410 	bl	90b4 <__aeabi_dcmplt>
    4070:	e3500000 	cmp	r0, #0
    4074:	e1a02004 	mov	r2, r4
    4078:	e1a03005 	mov	r3, r5
    407c:	e3a00000 	mov	r0, #0
    4080:	e51f16dc 	ldr	r1, [pc, #-1756]	; 39ac <_dtoa_r+0x5c4>
    4084:	e1a0b00a 	mov	r11, r10
    4088:	0affffd2 	beq	3fd8 <_dtoa_r+0xbf0>
    408c:	e59d4024 	ldr	r4, [sp, #36]	; 0x24
    4090:	e1a0700a 	mov	r7, r10
    4094:	e59db058 	ldr	r11, [sp, #88]	; 0x58
    4098:	e59d6068 	ldr	r6, [sp, #104]	; 0x68
    409c:	e59d9064 	ldr	r9, [sp, #100]	; 0x64
    40a0:	e58da024 	str	r10, [sp, #36]	; 0x24
    40a4:	eafffee4 	b	3c3c <_dtoa_r+0x854>
    40a8:	e3a0c001 	mov	r12, #1
    40ac:	e58dc040 	str	r12, [sp, #64]	; 0x40
    40b0:	e59dc0a4 	ldr	r12, [sp, #164]	; 0xa4
    40b4:	e08cc009 	add	r12, r12, r9
    40b8:	e28c8001 	add	r8, r12, #1
    40bc:	e3580000 	cmp	r8, #0
    40c0:	e58dc044 	str	r12, [sp, #68]	; 0x44
    40c4:	da000191 	ble	4710 <_dtoa_r+0x1328>
    40c8:	e358000e 	cmp	r8, #14
    40cc:	83a04000 	movhi	r4, #0
    40d0:	92044001 	andls	r4, r4, #1
    40d4:	e58d8038 	str	r8, [sp, #56]	; 0x38
    40d8:	eaffff27 	b	3d7c <_dtoa_r+0x994>
    40dc:	e3a0c001 	mov	r12, #1
    40e0:	e58dc040 	str	r12, [sp, #64]	; 0x40
    40e4:	eaffff1b 	b	3d58 <_dtoa_r+0x970>
    40e8:	e3a0c000 	mov	r12, #0
    40ec:	e58dc040 	str	r12, [sp, #64]	; 0x40
    40f0:	eaffffee 	b	40b0 <_dtoa_r+0xcc8>
    40f4:	e1a00008 	mov	r0, r8
    40f8:	eb001256 	bl	8a58 <__aeabi_i2d>
    40fc:	e28d3030 	add	r3, sp, #48	; 0x30
    4100:	e893000c 	ldm	r3, {r2, r3}
    4104:	eb00128a 	bl	8b34 <__aeabi_dmul>
    4108:	e3a02000 	mov	r2, #0
    410c:	e51f3750 	ldr	r3, [pc, #-1872]	; 39c4 <_dtoa_r+0x5dc>
    4110:	eb001183 	bl	8724 <__adddf3>
    4114:	e1a04000 	mov	r4, r0
    4118:	e241550d 	sub	r5, r1, #54525952	; 0x3400000
    411c:	e3a02000 	mov	r2, #0
    4120:	e51f3770 	ldr	r3, [pc, #-1904]	; 39b8 <_dtoa_r+0x5d0>
    4124:	e28d1030 	add	r1, sp, #48	; 0x30
    4128:	e8910003 	ldm	r1, {r0, r1}
    412c:	eb00117b 	bl	8720 <__aeabi_dsub>
    4130:	e1a02004 	mov	r2, r4
    4134:	e1a03005 	mov	r3, r5
    4138:	e1a07000 	mov	r7, r0
    413c:	e1a08001 	mov	r8, r1
    4140:	eb0013ed 	bl	90fc <__aeabi_dcmpgt>
    4144:	e250a000 	subs	r10, r0, #0
    4148:	1a000070 	bne	4310 <_dtoa_r+0xf28>
    414c:	e1a02004 	mov	r2, r4
    4150:	e2853102 	add	r3, r5, #-2147483648	; 0x80000000
    4154:	e1a00007 	mov	r0, r7
    4158:	e1a01008 	mov	r1, r8
    415c:	eb0013d4 	bl	90b4 <__aeabi_dcmplt>
    4160:	e3500000 	cmp	r0, #0
    4164:	0afffd79 	beq	3750 <_dtoa_r+0x368>
    4168:	e1a0700a 	mov	r7, r10
    416c:	e59dc0a4 	ldr	r12, [sp, #164]	; 0xa4
    4170:	e59d4024 	ldr	r4, [sp, #36]	; 0x24
    4174:	e1e0900c 	mvn	r9, r12
    4178:	e3a05000 	mov	r5, #0
    417c:	eafffea3 	b	3c10 <_dtoa_r+0x828>
    4180:	e59dc040 	ldr	r12, [sp, #64]	; 0x40
    4184:	e35c0000 	cmp	r12, #0
    4188:	1a0000ee 	bne	4548 <_dtoa_r+0x1160>
    418c:	e3a04000 	mov	r4, #0
    4190:	e59d5038 	ldr	r5, [sp, #56]	; 0x38
    4194:	e59d8024 	ldr	r8, [sp, #36]	; 0x24
    4198:	ea000005 	b	41b4 <_dtoa_r+0xdcc>
    419c:	e1a0100b 	mov	r1, r11
    41a0:	e1a00006 	mov	r0, r6
    41a4:	e3a0200a 	mov	r2, #10
    41a8:	e3a03000 	mov	r3, #0
    41ac:	eb000541 	bl	56b8 <__multadd>
    41b0:	e1a0b000 	mov	r11, r0
    41b4:	e1a01007 	mov	r1, r7
    41b8:	e1a0000b 	mov	r0, r11
    41bc:	ebfffc11 	bl	3208 <quorem>
    41c0:	e2800030 	add	r0, r0, #48	; 0x30
    41c4:	e7c80004 	strb	r0, [r8, r4]
    41c8:	e2844001 	add	r4, r4, #1
    41cc:	e1540005 	cmp	r4, r5
    41d0:	bafffff1 	blt	419c <_dtoa_r+0xdb4>
    41d4:	e59dc024 	ldr	r12, [sp, #36]	; 0x24
    41d8:	e59d4038 	ldr	r4, [sp, #56]	; 0x38
    41dc:	e1a03000 	mov	r3, r0
    41e0:	e3540001 	cmp	r4, #1
    41e4:	a08cc004 	addge	r12, r12, r4
    41e8:	b28cc001 	addlt	r12, r12, #1
    41ec:	e3a05000 	mov	r5, #0
    41f0:	e1a0100b 	mov	r1, r11
    41f4:	e3a02001 	mov	r2, #1
    41f8:	e1a00006 	mov	r0, r6
    41fc:	e58d300c 	str	r3, [sp, #12]
    4200:	e58dc008 	str	r12, [sp, #8]
    4204:	eb000696 	bl	5c64 <__lshift>
    4208:	e1a01007 	mov	r1, r7
    420c:	e1a0b000 	mov	r11, r0
    4210:	eb0006d4 	bl	5d68 <__mcmp>
    4214:	e3500000 	cmp	r0, #0
    4218:	e59d300c 	ldr	r3, [sp, #12]
    421c:	e59dc008 	ldr	r12, [sp, #8]
    4220:	da0001ba 	ble	4910 <_dtoa_r+0x1528>
    4224:	e59d4024 	ldr	r4, [sp, #36]	; 0x24
    4228:	e2844001 	add	r4, r4, #1
    422c:	e55c3001 	ldrb	r3, [r12, #-1]
    4230:	e58d4030 	str	r4, [sp, #48]	; 0x30
    4234:	e1a0100c 	mov	r1, r12
    4238:	e59d0030 	ldr	r0, [sp, #48]	; 0x30
    423c:	ea000001 	b	4248 <_dtoa_r+0xe60>
    4240:	e5513002 	ldrb	r3, [r1, #-2]
    4244:	e1a01002 	mov	r1, r2
    4248:	e3530039 	cmp	r3, #57	; 0x39
    424c:	e2412001 	sub	r2, r1, #1
    4250:	1a0001cd 	bne	498c <_dtoa_r+0x15a4>
    4254:	e1510000 	cmp	r1, r0
    4258:	1afffff8 	bne	4240 <_dtoa_r+0xe58>
    425c:	e3a03031 	mov	r3, #49	; 0x31
    4260:	e59d4024 	ldr	r4, [sp, #36]	; 0x24
    4264:	e2899001 	add	r9, r9, #1
    4268:	e5c23000 	strb	r3, [r2]
    426c:	e58d1024 	str	r1, [sp, #36]	; 0x24
    4270:	eafffe66 	b	3c10 <_dtoa_r+0x828>
    4274:	e3a0301c 	mov	r3, #28
    4278:	eafffe2c 	b	3b30 <_dtoa_r+0x748>
    427c:	e28d3010 	add	r3, sp, #16
    4280:	e893000c 	ldm	r3, {r2, r3}
    4284:	e3a08002 	mov	r8, #2
    4288:	e58d2030 	str	r2, [sp, #48]	; 0x30
    428c:	e58d3034 	str	r3, [sp, #52]	; 0x34
    4290:	eafffedf 	b	3e14 <_dtoa_r+0xa2c>
    4294:	e1a00006 	mov	r0, r6
    4298:	e1a01005 	mov	r1, r5
    429c:	eb0004fe 	bl	569c <_Bfree>
    42a0:	eafffe62 	b	3c30 <_dtoa_r+0x848>
    42a4:	e2694000 	rsb	r4, r9, #0
    42a8:	e3540000 	cmp	r4, #0
    42ac:	0a000128 	beq	4754 <_dtoa_r+0x136c>
    42b0:	e51f3904 	ldr	r3, [pc, #-2308]	; 39b4 <_dtoa_r+0x5cc>
    42b4:	e204200f 	and	r2, r4, #15
    42b8:	e0833182 	add	r3, r3, r2, lsl #3
    42bc:	e28d1010 	add	r1, sp, #16
    42c0:	e8910003 	ldm	r1, {r0, r1}
    42c4:	e893000c 	ldm	r3, {r2, r3}
    42c8:	eb001219 	bl	8b34 <__aeabi_dmul>
    42cc:	e1b04244 	asrs	r4, r4, #4
    42d0:	e58d0030 	str	r0, [sp, #48]	; 0x30
    42d4:	e58d1034 	str	r1, [sp, #52]	; 0x34
    42d8:	0a0001d2 	beq	4a28 <_dtoa_r+0x1640>
    42dc:	e51f5934 	ldr	r5, [pc, #-2356]	; 39b0 <_dtoa_r+0x5c8>
    42e0:	e3a08002 	mov	r8, #2
    42e4:	e3140001 	tst	r4, #1
    42e8:	0a000002 	beq	42f8 <_dtoa_r+0xf10>
    42ec:	e895000c 	ldm	r5, {r2, r3}
    42f0:	eb00120f 	bl	8b34 <__aeabi_dmul>
    42f4:	e2888001 	add	r8, r8, #1
    42f8:	e1b040c4 	asrs	r4, r4, #1
    42fc:	e2855008 	add	r5, r5, #8
    4300:	1afffff7 	bne	42e4 <_dtoa_r+0xefc>
    4304:	e58d0030 	str	r0, [sp, #48]	; 0x30
    4308:	e58d1034 	str	r1, [sp, #52]	; 0x34
    430c:	eafffed6 	b	3e6c <_dtoa_r+0xa84>
    4310:	e3a07000 	mov	r7, #0
    4314:	e1a0a007 	mov	r10, r7
    4318:	eafffe35 	b	3bf4 <_dtoa_r+0x80c>
    431c:	e51f1970 	ldr	r1, [pc, #-2416]	; 39b4 <_dtoa_r+0x5cc>
    4320:	e24ac001 	sub	r12, r10, #1
    4324:	e081118c 	add	r1, r1, r12, lsl #3
    4328:	e1a02004 	mov	r2, r4
    432c:	e1a03005 	mov	r3, r5
    4330:	e8910003 	ldm	r1, {r0, r1}
    4334:	e58dc050 	str	r12, [sp, #80]	; 0x50
    4338:	eb0011fd 	bl	8b34 <__aeabi_dmul>
    433c:	e58d0058 	str	r0, [sp, #88]	; 0x58
    4340:	e58d105c 	str	r1, [sp, #92]	; 0x5c
    4344:	e28d1030 	add	r1, sp, #48	; 0x30
    4348:	e8910003 	ldm	r1, {r0, r1}
    434c:	eb001370 	bl	9114 <__aeabi_d2iz>
    4350:	e1a07000 	mov	r7, r0
    4354:	eb0011bf 	bl	8a58 <__aeabi_i2d>
    4358:	e1a02000 	mov	r2, r0
    435c:	e1a03001 	mov	r3, r1
    4360:	e28d1030 	add	r1, sp, #48	; 0x30
    4364:	e8910003 	ldm	r1, {r0, r1}
    4368:	eb0010ec 	bl	8720 <__aeabi_dsub>
    436c:	e59dc024 	ldr	r12, [sp, #36]	; 0x24
    4370:	e2877030 	add	r7, r7, #48	; 0x30
    4374:	e4cc7001 	strb	r7, [r12], #1
    4378:	e35a0001 	cmp	r10, #1
    437c:	e1a04000 	mov	r4, r0
    4380:	e1a05001 	mov	r5, r1
    4384:	e58dc030 	str	r12, [sp, #48]	; 0x30
    4388:	0a000019 	beq	43f4 <_dtoa_r+0x100c>
    438c:	e59dc024 	ldr	r12, [sp, #36]	; 0x24
    4390:	e24c3001 	sub	r3, r12, #1
    4394:	e1a0700c 	mov	r7, r12
    4398:	e083a00a 	add	r10, r3, r10
    439c:	e3a02000 	mov	r2, #0
    43a0:	e51f39e8 	ldr	r3, [pc, #-2536]	; 39c0 <_dtoa_r+0x5d8>
    43a4:	eb0011e2 	bl	8b34 <__aeabi_dmul>
    43a8:	e1a05001 	mov	r5, r1
    43ac:	e1a04000 	mov	r4, r0
    43b0:	eb001357 	bl	9114 <__aeabi_d2iz>
    43b4:	e1a08000 	mov	r8, r0
    43b8:	eb0011a6 	bl	8a58 <__aeabi_i2d>
    43bc:	e2888030 	add	r8, r8, #48	; 0x30
    43c0:	e1a02000 	mov	r2, r0
    43c4:	e1a03001 	mov	r3, r1
    43c8:	e1a00004 	mov	r0, r4
    43cc:	e1a01005 	mov	r1, r5
    43d0:	eb0010d2 	bl	8720 <__aeabi_dsub>
    43d4:	e5e78001 	strb	r8, [r7, #1]!
    43d8:	e157000a 	cmp	r7, r10
    43dc:	1affffee 	bne	439c <_dtoa_r+0xfb4>
    43e0:	e1a05001 	mov	r5, r1
    43e4:	e59d2050 	ldr	r2, [sp, #80]	; 0x50
    43e8:	e59d1030 	ldr	r1, [sp, #48]	; 0x30
    43ec:	e1a04000 	mov	r4, r0
    43f0:	e081c002 	add	r12, r1, r2
    43f4:	e3a02000 	mov	r2, #0
    43f8:	e51f3a38 	ldr	r3, [pc, #-2616]	; 39c8 <_dtoa_r+0x5e0>
    43fc:	e28d1058 	add	r1, sp, #88	; 0x58
    4400:	e8910003 	ldm	r1, {r0, r1}
    4404:	e58dc008 	str	r12, [sp, #8]
    4408:	eb0010c5 	bl	8724 <__adddf3>
    440c:	e1a02004 	mov	r2, r4
    4410:	e1a03005 	mov	r3, r5
    4414:	eb001326 	bl	90b4 <__aeabi_dcmplt>
    4418:	e3500000 	cmp	r0, #0
    441c:	e59dc008 	ldr	r12, [sp, #8]
    4420:	0a0000ee 	beq	47e0 <_dtoa_r+0x13f8>
    4424:	e55c8001 	ldrb	r8, [r12, #-1]
    4428:	e59d4024 	ldr	r4, [sp, #36]	; 0x24
    442c:	eafffd4d 	b	3968 <_dtoa_r+0x580>
    4430:	e5973010 	ldr	r3, [r7, #16]
    4434:	e0873103 	add	r3, r7, r3, lsl #2
    4438:	e5930010 	ldr	r0, [r3, #16]
    443c:	eb000510 	bl	5884 <__hi0bits>
    4440:	e2600020 	rsb	r0, r0, #32
    4444:	eafffdb1 	b	3b10 <_dtoa_r+0x728>
    4448:	e1a0000b 	mov	r0, r11
    444c:	e1a01007 	mov	r1, r7
    4450:	eb000644 	bl	5d68 <__mcmp>
    4454:	e3500000 	cmp	r0, #0
    4458:	aafffdce 	bge	3b98 <_dtoa_r+0x7b0>
    445c:	e1a0100b 	mov	r1, r11
    4460:	e1a00006 	mov	r0, r6
    4464:	e3a0200a 	mov	r2, #10
    4468:	e3a03000 	mov	r3, #0
    446c:	eb000491 	bl	56b8 <__multadd>
    4470:	e59dc040 	ldr	r12, [sp, #64]	; 0x40
    4474:	e35c0000 	cmp	r12, #0
    4478:	e1a0b000 	mov	r11, r0
    447c:	e2499001 	sub	r9, r9, #1
    4480:	1a00016e 	bne	4a40 <_dtoa_r+0x1658>
    4484:	e59d4044 	ldr	r4, [sp, #68]	; 0x44
    4488:	e59dc0a0 	ldr	r12, [sp, #160]	; 0xa0
    448c:	e3540000 	cmp	r4, #0
    4490:	c3a03000 	movgt	r3, #0
    4494:	d3a03001 	movle	r3, #1
    4498:	e35c0002 	cmp	r12, #2
    449c:	d3a03000 	movle	r3, #0
    44a0:	e3530000 	cmp	r3, #0
    44a4:	058d4038 	streq	r4, [sp, #56]	; 0x38
    44a8:	0affff37 	beq	418c <_dtoa_r+0xda4>
    44ac:	e59dc044 	ldr	r12, [sp, #68]	; 0x44
    44b0:	e58dc038 	str	r12, [sp, #56]	; 0x38
    44b4:	eafffdc0 	b	3bbc <_dtoa_r+0x7d4>
    44b8:	e59d4038 	ldr	r4, [sp, #56]	; 0x38
    44bc:	e3540000 	cmp	r4, #0
    44c0:	1a00011e 	bne	4940 <_dtoa_r+0x1558>
    44c4:	e3a02000 	mov	r2, #0
    44c8:	e51f3b18 	ldr	r3, [pc, #-2840]	; 39b8 <_dtoa_r+0x5d0>
    44cc:	e28d1018 	add	r1, sp, #24
    44d0:	e8910003 	ldm	r1, {r0, r1}
    44d4:	eb001196 	bl	8b34 <__aeabi_dmul>
    44d8:	e28d3010 	add	r3, sp, #16
    44dc:	e893000c 	ldm	r3, {r2, r3}
    44e0:	eb0012ff 	bl	90e4 <__aeabi_dcmpge>
    44e4:	e59d7038 	ldr	r7, [sp, #56]	; 0x38
    44e8:	e3500000 	cmp	r0, #0
    44ec:	e1a0a007 	mov	r10, r7
    44f0:	1affff1d 	bne	416c <_dtoa_r+0xd84>
    44f4:	eafffdbe 	b	3bf4 <_dtoa_r+0x80c>
    44f8:	e59d1010 	ldr	r1, [sp, #16]
    44fc:	e3510000 	cmp	r1, #0
    4500:	1afffd7d 	bne	3afc <_dtoa_r+0x714>
    4504:	e59d3014 	ldr	r3, [sp, #20]
    4508:	e3c324ff 	bic	r2, r3, #-16777216	; 0xff000000
    450c:	e3c2260f 	bic	r2, r2, #15728640	; 0xf00000
    4510:	e3520000 	cmp	r2, #0
    4514:	1a000121 	bne	49a0 <_dtoa_r+0x15b8>
    4518:	e51f5b64 	ldr	r5, [pc, #-2916]	; 39bc <_dtoa_r+0x5d4>
    451c:	e0035005 	and	r5, r3, r5
    4520:	e3550000 	cmp	r5, #0
    4524:	0afffd75 	beq	3b00 <_dtoa_r+0x718>
    4528:	e59dc02c 	ldr	r12, [sp, #44]	; 0x2c
    452c:	e28cc001 	add	r12, r12, #1
    4530:	e58dc02c 	str	r12, [sp, #44]	; 0x2c
    4534:	e59dc028 	ldr	r12, [sp, #40]	; 0x28
    4538:	e28cc001 	add	r12, r12, #1
    453c:	e58dc028 	str	r12, [sp, #40]	; 0x28
    4540:	e3a05001 	mov	r5, #1
    4544:	eafffd6d 	b	3b00 <_dtoa_r+0x718>
    4548:	e3540000 	cmp	r4, #0
    454c:	da000004 	ble	4564 <_dtoa_r+0x117c>
    4550:	e1a0100a 	mov	r1, r10
    4554:	e1a00006 	mov	r0, r6
    4558:	e1a02004 	mov	r2, r4
    455c:	eb0005c0 	bl	5c64 <__lshift>
    4560:	e1a0a000 	mov	r10, r0
    4564:	e3550000 	cmp	r5, #0
    4568:	01a0800a 	moveq	r8, r10
    456c:	1a0000f6 	bne	494c <_dtoa_r+0x1564>
    4570:	e59d1038 	ldr	r1, [sp, #56]	; 0x38
    4574:	e59dc024 	ldr	r12, [sp, #36]	; 0x24
    4578:	e08cc001 	add	r12, r12, r1
    457c:	e59d4024 	ldr	r4, [sp, #36]	; 0x24
    4580:	e58dc02c 	str	r12, [sp, #44]	; 0x2c
    4584:	e59dc010 	ldr	r12, [sp, #16]
    4588:	e2844001 	add	r4, r4, #1
    458c:	e20cc001 	and	r12, r12, #1
    4590:	e58d4030 	str	r4, [sp, #48]	; 0x30
    4594:	e1a0500a 	mov	r5, r10
    4598:	e58dc020 	str	r12, [sp, #32]
    459c:	e58d9038 	str	r9, [sp, #56]	; 0x38
    45a0:	ea00002e 	b	4660 <_dtoa_r+0x1278>
    45a4:	e1a00006 	mov	r0, r6
    45a8:	e1a01003 	mov	r1, r3
    45ac:	e58d200c 	str	r2, [sp, #12]
    45b0:	eb000439 	bl	569c <_Bfree>
    45b4:	e59d200c 	ldr	r2, [sp, #12]
    45b8:	e59dc0a0 	ldr	r12, [sp, #160]	; 0xa0
    45bc:	e192c00c 	orrs	r12, r2, r12
    45c0:	1a000002 	bne	45d0 <_dtoa_r+0x11e8>
    45c4:	e59dc020 	ldr	r12, [sp, #32]
    45c8:	e35c0000 	cmp	r12, #0
    45cc:	0a000109 	beq	49f8 <_dtoa_r+0x1610>
    45d0:	e35a0000 	cmp	r10, #0
    45d4:	ba0000a6 	blt	4874 <_dtoa_r+0x148c>
    45d8:	e59dc0a0 	ldr	r12, [sp, #160]	; 0xa0
    45dc:	e19ac00c 	orrs	r12, r10, r12
    45e0:	1a000002 	bne	45f0 <_dtoa_r+0x1208>
    45e4:	e59dc020 	ldr	r12, [sp, #32]
    45e8:	e35c0000 	cmp	r12, #0
    45ec:	0a0000a0 	beq	4874 <_dtoa_r+0x148c>
    45f0:	e3520000 	cmp	r2, #0
    45f4:	ca0000eb 	bgt	49a8 <_dtoa_r+0x15c0>
    45f8:	e59dc02c 	ldr	r12, [sp, #44]	; 0x2c
    45fc:	e154000c 	cmp	r4, r12
    4600:	e5449001 	strb	r9, [r4, #-1]
    4604:	e1a0c004 	mov	r12, r4
    4608:	0a0000f1 	beq	49d4 <_dtoa_r+0x15ec>
    460c:	e1a0100b 	mov	r1, r11
    4610:	e1a00006 	mov	r0, r6
    4614:	e3a0200a 	mov	r2, #10
    4618:	e3a03000 	mov	r3, #0
    461c:	eb000425 	bl	56b8 <__multadd>
    4620:	e1550008 	cmp	r5, r8
    4624:	e1a0b000 	mov	r11, r0
    4628:	0a000028 	beq	46d0 <_dtoa_r+0x12e8>
    462c:	e1a01005 	mov	r1, r5
    4630:	e3a0200a 	mov	r2, #10
    4634:	e3a03000 	mov	r3, #0
    4638:	e1a00006 	mov	r0, r6
    463c:	eb00041d 	bl	56b8 <__multadd>
    4640:	e1a01008 	mov	r1, r8
    4644:	e1a05000 	mov	r5, r0
    4648:	e3a0200a 	mov	r2, #10
    464c:	e1a00006 	mov	r0, r6
    4650:	e3a03000 	mov	r3, #0
    4654:	eb000417 	bl	56b8 <__multadd>
    4658:	e1a08000 	mov	r8, r0
    465c:	e2844001 	add	r4, r4, #1
    4660:	e1a01007 	mov	r1, r7
    4664:	e1a0000b 	mov	r0, r11
    4668:	ebfffae6 	bl	3208 <quorem>
    466c:	e1a01005 	mov	r1, r5
    4670:	e58d0010 	str	r0, [sp, #16]
    4674:	e1a0000b 	mov	r0, r11
    4678:	eb0005ba 	bl	5d68 <__mcmp>
    467c:	e1a02008 	mov	r2, r8
    4680:	e1a0a000 	mov	r10, r0
    4684:	e1a01007 	mov	r1, r7
    4688:	e1a00006 	mov	r0, r6
    468c:	eb0005ce 	bl	5dcc <__mdiff>
    4690:	e244c001 	sub	r12, r4, #1
    4694:	e590200c 	ldr	r2, [r0, #12]
    4698:	e58dc028 	str	r12, [sp, #40]	; 0x28
    469c:	e59dc010 	ldr	r12, [sp, #16]
    46a0:	e3520000 	cmp	r2, #0
    46a4:	e1a03000 	mov	r3, r0
    46a8:	e28c9030 	add	r9, r12, #48	; 0x30
    46ac:	13a02001 	movne	r2, #1
    46b0:	1affffbb 	bne	45a4 <_dtoa_r+0x11bc>
    46b4:	e1a01003 	mov	r1, r3
    46b8:	e1a0000b 	mov	r0, r11
    46bc:	e58d300c 	str	r3, [sp, #12]
    46c0:	eb0005a8 	bl	5d68 <__mcmp>
    46c4:	e59d300c 	ldr	r3, [sp, #12]
    46c8:	e1a02000 	mov	r2, r0
    46cc:	eaffffb4 	b	45a4 <_dtoa_r+0x11bc>
    46d0:	e1a01005 	mov	r1, r5
    46d4:	e1a00006 	mov	r0, r6
    46d8:	e3a0200a 	mov	r2, #10
    46dc:	e3a03000 	mov	r3, #0
    46e0:	eb0003f4 	bl	56b8 <__multadd>
    46e4:	e1a05000 	mov	r5, r0
    46e8:	e1a08000 	mov	r8, r0
    46ec:	eaffffda 	b	465c <_dtoa_r+0x1274>
    46f0:	e3a03001 	mov	r3, #1
    46f4:	e58d3044 	str	r3, [sp, #68]	; 0x44
    46f8:	e58d3038 	str	r3, [sp, #56]	; 0x38
    46fc:	e58d30a4 	str	r3, [sp, #164]	; 0xa4
    4700:	e3a01000 	mov	r1, #0
    4704:	e5861044 	str	r1, [r6, #68]	; 0x44
    4708:	e0034004 	and	r4, r3, r4
    470c:	eafffda7 	b	3db0 <_dtoa_r+0x9c8>
    4710:	e358000e 	cmp	r8, #14
    4714:	83a03000 	movhi	r3, #0
    4718:	93a03001 	movls	r3, #1
    471c:	e58d8038 	str	r8, [sp, #56]	; 0x38
    4720:	eafffff6 	b	4700 <_dtoa_r+0x1318>
    4724:	e1a0100b 	mov	r1, r11
    4728:	e1a00006 	mov	r0, r6
    472c:	e59d203c 	ldr	r2, [sp, #60]	; 0x3c
    4730:	eb00050e 	bl	5b70 <__pow5mult>
    4734:	e1a0b000 	mov	r11, r0
    4738:	eafffce0 	b	3ac0 <_dtoa_r+0x6d8>
    473c:	e1a0c006 	mov	r12, r6
    4740:	e59d9020 	ldr	r9, [sp, #32]
    4744:	e59d6028 	ldr	r6, [sp, #40]	; 0x28
    4748:	e59d4024 	ldr	r4, [sp, #36]	; 0x24
    474c:	e58dc024 	str	r12, [sp, #36]	; 0x24
    4750:	eafffd39 	b	3c3c <_dtoa_r+0x854>
    4754:	e28d4010 	add	r4, sp, #16
    4758:	e8940018 	ldm	r4, {r3, r4}
    475c:	e3a08002 	mov	r8, #2
    4760:	e58d3030 	str	r3, [sp, #48]	; 0x30
    4764:	e58d4034 	str	r4, [sp, #52]	; 0x34
    4768:	eafffdbf 	b	3e6c <_dtoa_r+0xa84>
    476c:	e59dc038 	ldr	r12, [sp, #56]	; 0x38
    4770:	e35c0000 	cmp	r12, #0
    4774:	0afffe5e 	beq	40f4 <_dtoa_r+0xd0c>
    4778:	e59d4044 	ldr	r4, [sp, #68]	; 0x44
    477c:	e3540000 	cmp	r4, #0
    4780:	dafffbf2 	ble	3750 <_dtoa_r+0x368>
    4784:	e3a02000 	mov	r2, #0
    4788:	e51f3dd0 	ldr	r3, [pc, #-3536]	; 39c0 <_dtoa_r+0x5d8>
    478c:	e28d1030 	add	r1, sp, #48	; 0x30
    4790:	e8910003 	ldm	r1, {r0, r1}
    4794:	eb0010e6 	bl	8b34 <__aeabi_dmul>
    4798:	e58d0030 	str	r0, [sp, #48]	; 0x30
    479c:	e58d1034 	str	r1, [sp, #52]	; 0x34
    47a0:	e2880001 	add	r0, r8, #1
    47a4:	eb0010ab 	bl	8a58 <__aeabi_i2d>
    47a8:	e1a02000 	mov	r2, r0
    47ac:	e1a03001 	mov	r3, r1
    47b0:	e28d1030 	add	r1, sp, #48	; 0x30
    47b4:	e8910003 	ldm	r1, {r0, r1}
    47b8:	eb0010dd 	bl	8b34 <__aeabi_dmul>
    47bc:	e3a02000 	mov	r2, #0
    47c0:	e51f3e04 	ldr	r3, [pc, #-3588]	; 39c4 <_dtoa_r+0x5dc>
    47c4:	eb000fd6 	bl	8724 <__adddf3>
    47c8:	e249c001 	sub	r12, r9, #1
    47cc:	e1a04000 	mov	r4, r0
    47d0:	e58dc064 	str	r12, [sp, #100]	; 0x64
    47d4:	e241550d 	sub	r5, r1, #54525952	; 0x3400000
    47d8:	e59da044 	ldr	r10, [sp, #68]	; 0x44
    47dc:	eafffdbb 	b	3ed0 <_dtoa_r+0xae8>
    47e0:	e28d3058 	add	r3, sp, #88	; 0x58
    47e4:	e893000c 	ldm	r3, {r2, r3}
    47e8:	e3a00000 	mov	r0, #0
    47ec:	e51f1e2c 	ldr	r1, [pc, #-3628]	; 39c8 <_dtoa_r+0x5e0>
    47f0:	e58dc008 	str	r12, [sp, #8]
    47f4:	eb000fc9 	bl	8720 <__aeabi_dsub>
    47f8:	e1a02004 	mov	r2, r4
    47fc:	e1a03005 	mov	r3, r5
    4800:	eb00123d 	bl	90fc <__aeabi_dcmpgt>
    4804:	e3500000 	cmp	r0, #0
    4808:	e59dc008 	ldr	r12, [sp, #8]
    480c:	0afffbcf 	beq	3750 <_dtoa_r+0x368>
    4810:	e1a0900c 	mov	r9, r12
    4814:	e5592001 	ldrb	r2, [r9, #-1]
    4818:	e3520030 	cmp	r2, #48	; 0x30
    481c:	e1a03009 	mov	r3, r9
    4820:	e2499001 	sub	r9, r9, #1
    4824:	0afffffa 	beq	4814 <_dtoa_r+0x142c>
    4828:	e59d4024 	ldr	r4, [sp, #36]	; 0x24
    482c:	e59d9064 	ldr	r9, [sp, #100]	; 0x64
    4830:	e58d3024 	str	r3, [sp, #36]	; 0x24
    4834:	eafffd00 	b	3c3c <_dtoa_r+0x854>
    4838:	e1a0100b 	mov	r1, r11
    483c:	e1a00006 	mov	r0, r6
    4840:	eb0004ca 	bl	5b70 <__pow5mult>
    4844:	e1a0b000 	mov	r11, r0
    4848:	eafffc9c 	b	3ac0 <_dtoa_r+0x6d8>
    484c:	e59d4060 	ldr	r4, [sp, #96]	; 0x60
    4850:	e3540000 	cmp	r4, #0
    4854:	059d3070 	ldreq	r3, [sp, #112]	; 0x70
    4858:	12833e43 	addne	r3, r3, #1072	; 0x430
    485c:	12833003 	addne	r3, r3, #3
    4860:	159d503c 	ldrne	r5, [sp, #60]	; 0x3c
    4864:	059d503c 	ldreq	r5, [sp, #60]	; 0x3c
    4868:	02633036 	rsbeq	r3, r3, #54	; 0x36
    486c:	e59d402c 	ldr	r4, [sp, #44]	; 0x2c
    4870:	eafffd2b 	b	3d24 <_dtoa_r+0x93c>
    4874:	e1a03009 	mov	r3, r9
    4878:	e3520000 	cmp	r2, #0
    487c:	e59d9038 	ldr	r9, [sp, #56]	; 0x38
    4880:	e1a04003 	mov	r4, r3
    4884:	da00000e 	ble	48c4 <_dtoa_r+0x14dc>
    4888:	e1a0100b 	mov	r1, r11
    488c:	e3a02001 	mov	r2, #1
    4890:	e1a00006 	mov	r0, r6
    4894:	e58d300c 	str	r3, [sp, #12]
    4898:	eb0004f1 	bl	5c64 <__lshift>
    489c:	e1a01007 	mov	r1, r7
    48a0:	e1a0b000 	mov	r11, r0
    48a4:	eb00052f 	bl	5d68 <__mcmp>
    48a8:	e3500000 	cmp	r0, #0
    48ac:	e59d300c 	ldr	r3, [sp, #12]
    48b0:	da000058 	ble	4a18 <_dtoa_r+0x1630>
    48b4:	e3540039 	cmp	r4, #57	; 0x39
    48b8:	e59d4010 	ldr	r4, [sp, #16]
    48bc:	e2843031 	add	r3, r4, #49	; 0x31
    48c0:	0a000047 	beq	49e4 <_dtoa_r+0x15fc>
    48c4:	e59d2028 	ldr	r2, [sp, #40]	; 0x28
    48c8:	e4c23001 	strb	r3, [r2], #1
    48cc:	e59d4024 	ldr	r4, [sp, #36]	; 0x24
    48d0:	e1a0a008 	mov	r10, r8
    48d4:	e58d2024 	str	r2, [sp, #36]	; 0x24
    48d8:	eafffccc 	b	3c10 <_dtoa_r+0x828>
    48dc:	e1a0c00b 	mov	r12, r11
    48e0:	e59d6068 	ldr	r6, [sp, #104]	; 0x68
    48e4:	e59db058 	ldr	r11, [sp, #88]	; 0x58
    48e8:	e59d4024 	ldr	r4, [sp, #36]	; 0x24
    48ec:	eafffc1d 	b	3968 <_dtoa_r+0x580>
    48f0:	e58d9024 	str	r9, [sp, #36]	; 0x24
    48f4:	e2888001 	add	r8, r8, #1
    48f8:	e59d9064 	ldr	r9, [sp, #100]	; 0x64
    48fc:	eafffc40 	b	3a04 <_dtoa_r+0x61c>
    4900:	e59d906c 	ldr	r9, [sp, #108]	; 0x6c
    4904:	e59db058 	ldr	r11, [sp, #88]	; 0x58
    4908:	e59d6068 	ldr	r6, [sp, #104]	; 0x68
    490c:	eafffb8f 	b	3750 <_dtoa_r+0x368>
    4910:	1a000001 	bne	491c <_dtoa_r+0x1534>
    4914:	e3130001 	tst	r3, #1
    4918:	1afffe41 	bne	4224 <_dtoa_r+0xe3c>
    491c:	e1a0100c 	mov	r1, r12
    4920:	e5512001 	ldrb	r2, [r1, #-1]
    4924:	e3520030 	cmp	r2, #48	; 0x30
    4928:	e1a03001 	mov	r3, r1
    492c:	e2411001 	sub	r1, r1, #1
    4930:	0afffffa 	beq	4920 <_dtoa_r+0x1538>
    4934:	e59d4024 	ldr	r4, [sp, #36]	; 0x24
    4938:	e58d3024 	str	r3, [sp, #36]	; 0x24
    493c:	eafffcb3 	b	3c10 <_dtoa_r+0x828>
    4940:	e3a07000 	mov	r7, #0
    4944:	e1a0a007 	mov	r10, r7
    4948:	eafffe07 	b	416c <_dtoa_r+0xd84>
    494c:	e59a1004 	ldr	r1, [r10, #4]
    4950:	e1a00006 	mov	r0, r6
    4954:	eb00032d 	bl	5610 <_Balloc>
    4958:	e59a2010 	ldr	r2, [r10, #16]
    495c:	e2822002 	add	r2, r2, #2
    4960:	e1a04000 	mov	r4, r0
    4964:	e1a02102 	lsl	r2, r2, #2
    4968:	e28a100c 	add	r1, r10, #12
    496c:	e280000c 	add	r0, r0, #12
    4970:	eb0002a1 	bl	53fc <memcpy>
    4974:	e1a00006 	mov	r0, r6
    4978:	e1a01004 	mov	r1, r4
    497c:	e3a02001 	mov	r2, #1
    4980:	eb0004b7 	bl	5c64 <__lshift>
    4984:	e1a08000 	mov	r8, r0
    4988:	eafffef8 	b	4570 <_dtoa_r+0x1188>
    498c:	e2833001 	add	r3, r3, #1
    4990:	e59d4024 	ldr	r4, [sp, #36]	; 0x24
    4994:	e5c23000 	strb	r3, [r2]
    4998:	e58d1024 	str	r1, [sp, #36]	; 0x24
    499c:	eafffc9b 	b	3c10 <_dtoa_r+0x828>
    49a0:	e59d5010 	ldr	r5, [sp, #16]
    49a4:	eafffc55 	b	3b00 <_dtoa_r+0x718>
    49a8:	e1a03009 	mov	r3, r9
    49ac:	e3530039 	cmp	r3, #57	; 0x39
    49b0:	e59d9038 	ldr	r9, [sp, #56]	; 0x38
    49b4:	0a00000a 	beq	49e4 <_dtoa_r+0x15fc>
    49b8:	e59d2028 	ldr	r2, [sp, #40]	; 0x28
    49bc:	e2833001 	add	r3, r3, #1
    49c0:	e4c23001 	strb	r3, [r2], #1
    49c4:	e59d4024 	ldr	r4, [sp, #36]	; 0x24
    49c8:	e1a0a008 	mov	r10, r8
    49cc:	e58d2024 	str	r2, [sp, #36]	; 0x24
    49d0:	eafffc8e 	b	3c10 <_dtoa_r+0x828>
    49d4:	e1a03009 	mov	r3, r9
    49d8:	e1a0a008 	mov	r10, r8
    49dc:	e59d9038 	ldr	r9, [sp, #56]	; 0x38
    49e0:	eafffe02 	b	41f0 <_dtoa_r+0xe08>
    49e4:	e59dc028 	ldr	r12, [sp, #40]	; 0x28
    49e8:	e3a03039 	mov	r3, #57	; 0x39
    49ec:	e4cc3001 	strb	r3, [r12], #1
    49f0:	e1a0a008 	mov	r10, r8
    49f4:	eafffe0e 	b	4234 <_dtoa_r+0xe4c>
    49f8:	e1a03009 	mov	r3, r9
    49fc:	e3530039 	cmp	r3, #57	; 0x39
    4a00:	e59d9038 	ldr	r9, [sp, #56]	; 0x38
    4a04:	0afffff6 	beq	49e4 <_dtoa_r+0x15fc>
    4a08:	e35a0000 	cmp	r10, #0
    4a0c:	c59d4010 	ldrgt	r4, [sp, #16]
    4a10:	c2843031 	addgt	r3, r4, #49	; 0x31
    4a14:	eaffffaa 	b	48c4 <_dtoa_r+0x14dc>
    4a18:	1affffa9 	bne	48c4 <_dtoa_r+0x14dc>
    4a1c:	e3130001 	tst	r3, #1
    4a20:	0affffa7 	beq	48c4 <_dtoa_r+0x14dc>
    4a24:	eaffffa2 	b	48b4 <_dtoa_r+0x14cc>
    4a28:	e3a08002 	mov	r8, #2
    4a2c:	eafffd0e 	b	3e6c <_dtoa_r+0xa84>
    4a30:	e59dc030 	ldr	r12, [sp, #48]	; 0x30
    4a34:	e59d4024 	ldr	r4, [sp, #36]	; 0x24
    4a38:	e58dc024 	str	r12, [sp, #36]	; 0x24
    4a3c:	eafffc7e 	b	3c3c <_dtoa_r+0x854>
    4a40:	e3a03000 	mov	r3, #0
    4a44:	e1a0100a 	mov	r1, r10
    4a48:	e1a00006 	mov	r0, r6
    4a4c:	e3a0200a 	mov	r2, #10
    4a50:	eb000318 	bl	56b8 <__multadd>
    4a54:	e59dc044 	ldr	r12, [sp, #68]	; 0x44
    4a58:	e59d10a0 	ldr	r1, [sp, #160]	; 0xa0
    4a5c:	e35c0000 	cmp	r12, #0
    4a60:	c3a03000 	movgt	r3, #0
    4a64:	d3a03001 	movle	r3, #1
    4a68:	e3510002 	cmp	r1, #2
    4a6c:	d3a03000 	movle	r3, #0
    4a70:	e3530000 	cmp	r3, #0
    4a74:	e1a0a000 	mov	r10, r0
    4a78:	058dc038 	streq	r12, [sp, #56]	; 0x38
    4a7c:	0afffeb1 	beq	4548 <_dtoa_r+0x1160>
    4a80:	e59d4044 	ldr	r4, [sp, #68]	; 0x44
    4a84:	e58d4038 	str	r4, [sp, #56]	; 0x38
    4a88:	eafffc4b 	b	3bbc <_dtoa_r+0x7d4>
    4a8c:	e59dc030 	ldr	r12, [sp, #48]	; 0x30
    4a90:	e59d4024 	ldr	r4, [sp, #36]	; 0x24
    4a94:	e59d9064 	ldr	r9, [sp, #100]	; 0x64
    4a98:	e58dc024 	str	r12, [sp, #36]	; 0x24
    4a9c:	eafffc66 	b	3c3c <_dtoa_r+0x854>
    4aa0:	1263303c 	rsbne	r3, r3, #60	; 0x3c
    4aa4:	0afffc28 	beq	3b4c <_dtoa_r+0x764>
    4aa8:	eafffc20 	b	3b30 <_dtoa_r+0x748>
    4aac:	e1a00000 	nop			; (mov r0, r0)

00004ab0 <__libc_fini_array>:
    4ab0:	e92d4038 	push	{r3, r4, r5, lr}
    4ab4:	e59f5030 	ldr	r5, [pc, #48]	; 4aec <__libc_fini_array+0x3c>
    4ab8:	e59f4030 	ldr	r4, [pc, #48]	; 4af0 <__libc_fini_array+0x40>
    4abc:	e0654004 	rsb	r4, r5, r4
    4ac0:	e1b04144 	asrs	r4, r4, #2
    4ac4:	10855104 	addne	r5, r5, r4, lsl #2
    4ac8:	0a000004 	beq	4ae0 <__libc_fini_array+0x30>
    4acc:	e5353004 	ldr	r3, [r5, #-4]!
    4ad0:	e1a0e00f 	mov	lr, pc
    4ad4:	e12fff13 	bx	r3
    4ad8:	e2544001 	subs	r4, r4, #1
    4adc:	1afffffa 	bne	4acc <__libc_fini_array+0x1c>
    4ae0:	eb001550 	bl	a028 <__libc_fini>
    4ae4:	e8bd4038 	pop	{r3, r4, r5, lr}
    4ae8:	e12fff1e 	bx	lr
    4aec:	0000a040 	.word	0x0000a040
    4af0:	0000a044 	.word	0x0000a044

00004af4 <_setlocale_r>:
    4af4:	e92d4010 	push	{r4, lr}
    4af8:	e2524000 	subs	r4, r2, #0
    4afc:	0a000004 	beq	4b14 <_setlocale_r+0x20>
    4b00:	e1a00004 	mov	r0, r4
    4b04:	e59f1048 	ldr	r1, [pc, #72]	; 4b54 <_setlocale_r+0x60>
    4b08:	eb000633 	bl	63dc <strcmp>
    4b0c:	e3500000 	cmp	r0, #0
    4b10:	1a000002 	bne	4b20 <_setlocale_r+0x2c>
    4b14:	e59f003c 	ldr	r0, [pc, #60]	; 4b58 <_setlocale_r+0x64>
    4b18:	e8bd4010 	pop	{r4, lr}
    4b1c:	e12fff1e 	bx	lr
    4b20:	e1a00004 	mov	r0, r4
    4b24:	e59f102c 	ldr	r1, [pc, #44]	; 4b58 <_setlocale_r+0x64>
    4b28:	eb00062b 	bl	63dc <strcmp>
    4b2c:	e3500000 	cmp	r0, #0
    4b30:	0afffff7 	beq	4b14 <_setlocale_r+0x20>
    4b34:	e1a00004 	mov	r0, r4
    4b38:	e59f101c 	ldr	r1, [pc, #28]	; 4b5c <_setlocale_r+0x68>
    4b3c:	eb000626 	bl	63dc <strcmp>
    4b40:	e59f3010 	ldr	r3, [pc, #16]	; 4b58 <_setlocale_r+0x64>
    4b44:	e3500000 	cmp	r0, #0
    4b48:	01a00003 	moveq	r0, r3
    4b4c:	13a00000 	movne	r0, #0
    4b50:	eafffff0 	b	4b18 <_setlocale_r+0x24>
    4b54:	00009eb4 	.word	0x00009eb4
    4b58:	00009e3c 	.word	0x00009e3c
    4b5c:	00009dd8 	.word	0x00009dd8

00004b60 <__locale_charset>:
    4b60:	e59f0000 	ldr	r0, [pc]	; 4b68 <__locale_charset+0x8>
    4b64:	e12fff1e 	bx	lr
    4b68:	0000aa20 	.word	0x0000aa20

00004b6c <__locale_mb_cur_max>:
    4b6c:	e59f3004 	ldr	r3, [pc, #4]	; 4b78 <__locale_mb_cur_max+0xc>
    4b70:	e5930020 	ldr	r0, [r3, #32]
    4b74:	e12fff1e 	bx	lr
    4b78:	0000aa20 	.word	0x0000aa20

00004b7c <__locale_msgcharset>:
    4b7c:	e59f0000 	ldr	r0, [pc]	; 4b84 <__locale_msgcharset+0x8>
    4b80:	e12fff1e 	bx	lr
    4b84:	0000aa44 	.word	0x0000aa44

00004b88 <__locale_cjk_lang>:
    4b88:	e3a00000 	mov	r0, #0
    4b8c:	e12fff1e 	bx	lr

00004b90 <_localeconv_r>:
    4b90:	e59f0000 	ldr	r0, [pc]	; 4b98 <_localeconv_r+0x8>
    4b94:	e12fff1e 	bx	lr
    4b98:	0000aa64 	.word	0x0000aa64

00004b9c <setlocale>:
    4b9c:	e1a02001 	mov	r2, r1
    4ba0:	e59f100c 	ldr	r1, [pc, #12]	; 4bb4 <setlocale+0x18>
    4ba4:	e1a03000 	mov	r3, r0
    4ba8:	e5910000 	ldr	r0, [r1]
    4bac:	e1a01003 	mov	r1, r3
    4bb0:	eaffffcf 	b	4af4 <_setlocale_r>
    4bb4:	0000a5f0 	.word	0x0000a5f0

00004bb8 <localeconv>:
    4bb8:	e59f0000 	ldr	r0, [pc]	; 4bc0 <localeconv+0x8>
    4bbc:	e12fff1e 	bx	lr
    4bc0:	0000aa64 	.word	0x0000aa64

00004bc4 <_malloc_r>:
    4bc4:	e92d4ff0 	push	{r4, r5, r6, r7, r8, r9, r10, r11, lr}
    4bc8:	e281500b 	add	r5, r1, #11
    4bcc:	e3550016 	cmp	r5, #22
    4bd0:	83c55007 	bichi	r5, r5, #7
    4bd4:	81a03fa5 	lsrhi	r3, r5, #31
    4bd8:	93a03000 	movls	r3, #0
    4bdc:	93a05010 	movls	r5, #16
    4be0:	e1550001 	cmp	r5, r1
    4be4:	21a01003 	movcs	r1, r3
    4be8:	33831001 	orrcc	r1, r3, #1
    4bec:	e3510000 	cmp	r1, #0
    4bf0:	13a0300c 	movne	r3, #12
    4bf4:	e24dd00c 	sub	sp, sp, #12
    4bf8:	e1a06000 	mov	r6, r0
    4bfc:	15803000 	strne	r3, [r0]
    4c00:	13a04000 	movne	r4, #0
    4c04:	1a000015 	bne	4c60 <_malloc_r+0x9c>
    4c08:	eb00027e 	bl	5608 <__malloc_lock>
    4c0c:	e3550f7e 	cmp	r5, #504	; 0x1f8
    4c10:	2a000016 	bcs	4c70 <_malloc_r+0xac>
    4c14:	e59f76b8 	ldr	r7, [pc, #1720]	; 52d4 <_malloc_r+0x710>
    4c18:	e1a0e1a5 	lsr	lr, r5, #3
    4c1c:	e087318e 	add	r3, r7, lr, lsl #3
    4c20:	e593400c 	ldr	r4, [r3, #12]
    4c24:	e1540003 	cmp	r4, r3
    4c28:	0a00014b 	beq	515c <_malloc_r+0x598>
    4c2c:	e5943004 	ldr	r3, [r4, #4]
    4c30:	e3c33003 	bic	r3, r3, #3
    4c34:	e0843003 	add	r3, r4, r3
    4c38:	e5930004 	ldr	r0, [r3, #4]
    4c3c:	e2841008 	add	r1, r4, #8
    4c40:	e8910006 	ldm	r1, {r1, r2}
    4c44:	e3800001 	orr	r0, r0, #1
    4c48:	e5830004 	str	r0, [r3, #4]
    4c4c:	e581200c 	str	r2, [r1, #12]
    4c50:	e5821008 	str	r1, [r2, #8]
    4c54:	e1a00006 	mov	r0, r6
    4c58:	eb00026b 	bl	560c <__malloc_unlock>
    4c5c:	e2844008 	add	r4, r4, #8
    4c60:	e1a00004 	mov	r0, r4
    4c64:	e28dd00c 	add	sp, sp, #12
    4c68:	e8bd4ff0 	pop	{r4, r5, r6, r7, r8, r9, r10, r11, lr}
    4c6c:	e12fff1e 	bx	lr
    4c70:	e1b0e4a5 	lsrs	lr, r5, #9
    4c74:	01a0e1a5 	lsreq	lr, r5, #3
    4c78:	01a0108e 	lsleq	r1, lr, #1
    4c7c:	1a000061 	bne	4e08 <_malloc_r+0x244>
    4c80:	e59f764c 	ldr	r7, [pc, #1612]	; 52d4 <_malloc_r+0x710>
    4c84:	e0871101 	add	r1, r7, r1, lsl #2
    4c88:	e591400c 	ldr	r4, [r1, #12]
    4c8c:	e1510004 	cmp	r1, r4
    4c90:	1a000005 	bne	4cac <_malloc_r+0xe8>
    4c94:	ea00000a 	b	4cc4 <_malloc_r+0x100>
    4c98:	e3530000 	cmp	r3, #0
    4c9c:	aa0000d7 	bge	5000 <_malloc_r+0x43c>
    4ca0:	e594400c 	ldr	r4, [r4, #12]
    4ca4:	e1510004 	cmp	r1, r4
    4ca8:	0a000005 	beq	4cc4 <_malloc_r+0x100>
    4cac:	e5942004 	ldr	r2, [r4, #4]
    4cb0:	e3c22003 	bic	r2, r2, #3
    4cb4:	e0653002 	rsb	r3, r5, r2
    4cb8:	e353000f 	cmp	r3, #15
    4cbc:	dafffff5 	ble	4c98 <_malloc_r+0xd4>
    4cc0:	e24ee001 	sub	lr, lr, #1
    4cc4:	e28ee001 	add	lr, lr, #1
    4cc8:	e59f3604 	ldr	r3, [pc, #1540]	; 52d4 <_malloc_r+0x710>
    4ccc:	e5974010 	ldr	r4, [r7, #16]
    4cd0:	e2838008 	add	r8, r3, #8
    4cd4:	e1540008 	cmp	r4, r8
    4cd8:	05931004 	ldreq	r1, [r3, #4]
    4cdc:	0a000016 	beq	4d3c <_malloc_r+0x178>
    4ce0:	e5942004 	ldr	r2, [r4, #4]
    4ce4:	e3c22003 	bic	r2, r2, #3
    4ce8:	e0651002 	rsb	r1, r5, r2
    4cec:	e351000f 	cmp	r1, #15
    4cf0:	ca0000f7 	bgt	50d4 <_malloc_r+0x510>
    4cf4:	e3510000 	cmp	r1, #0
    4cf8:	e5838014 	str	r8, [r3, #20]
    4cfc:	e5838010 	str	r8, [r3, #16]
    4d00:	aa000046 	bge	4e20 <_malloc_r+0x25c>
    4d04:	e3520c02 	cmp	r2, #512	; 0x200
    4d08:	2a0000d2 	bcs	5058 <_malloc_r+0x494>
    4d0c:	e5930004 	ldr	r0, [r3, #4]
    4d10:	e1a021a2 	lsr	r2, r2, #3
    4d14:	e1a01142 	asr	r1, r2, #2
    4d18:	e3a0c001 	mov	r12, #1
    4d1c:	e180111c 	orr	r1, r0, r12, lsl r1
    4d20:	e0832182 	add	r2, r3, r2, lsl #3
    4d24:	e5920008 	ldr	r0, [r2, #8]
    4d28:	e584200c 	str	r2, [r4, #12]
    4d2c:	e5840008 	str	r0, [r4, #8]
    4d30:	e5831004 	str	r1, [r3, #4]
    4d34:	e5824008 	str	r4, [r2, #8]
    4d38:	e580400c 	str	r4, [r0, #12]
    4d3c:	e1a0014e 	asr	r0, lr, #2
    4d40:	e3a03001 	mov	r3, #1
    4d44:	e1a00013 	lsl	r0, r3, r0
    4d48:	e1500001 	cmp	r0, r1
    4d4c:	8a00003b 	bhi	4e40 <_malloc_r+0x27c>
    4d50:	e1110000 	tst	r1, r0
    4d54:	1a000008 	bne	4d7c <_malloc_r+0x1b8>
    4d58:	e1a00310 	lsl	r0, r0, r3
    4d5c:	e3cee003 	bic	lr, lr, #3
    4d60:	e1110000 	tst	r1, r0
    4d64:	e28ee004 	add	lr, lr, #4
    4d68:	1a000003 	bne	4d7c <_malloc_r+0x1b8>
    4d6c:	e1a00080 	lsl	r0, r0, #1
    4d70:	e1110000 	tst	r1, r0
    4d74:	e28ee004 	add	lr, lr, #4
    4d78:	0afffffb 	beq	4d6c <_malloc_r+0x1a8>
    4d7c:	e087a18e 	add	r10, r7, lr, lsl #3
    4d80:	e1a0c00a 	mov	r12, r10
    4d84:	e1a0400e 	mov	r4, lr
    4d88:	e59c300c 	ldr	r3, [r12, #12]
    4d8c:	e15c0003 	cmp	r12, r3
    4d90:	1a000005 	bne	4dac <_malloc_r+0x1e8>
    4d94:	ea0000db 	b	5108 <_malloc_r+0x544>
    4d98:	e3520000 	cmp	r2, #0
    4d9c:	aa0000f4 	bge	5174 <_malloc_r+0x5b0>
    4da0:	e593300c 	ldr	r3, [r3, #12]
    4da4:	e15c0003 	cmp	r12, r3
    4da8:	0a0000d6 	beq	5108 <_malloc_r+0x544>
    4dac:	e5931004 	ldr	r1, [r3, #4]
    4db0:	e3c11003 	bic	r1, r1, #3
    4db4:	e0652001 	rsb	r2, r5, r1
    4db8:	e352000f 	cmp	r2, #15
    4dbc:	dafffff5 	ble	4d98 <_malloc_r+0x1d4>
    4dc0:	e1a04003 	mov	r4, r3
    4dc4:	e593000c 	ldr	r0, [r3, #12]
    4dc8:	e5b4c008 	ldr	r12, [r4, #8]!
    4dcc:	e0831005 	add	r1, r3, r5
    4dd0:	e382e001 	orr	lr, r2, #1
    4dd4:	e3855001 	orr	r5, r5, #1
    4dd8:	e58c000c 	str	r0, [r12, #12]
    4ddc:	e580c008 	str	r12, [r0, #8]
    4de0:	e5835004 	str	r5, [r3, #4]
    4de4:	e5871014 	str	r1, [r7, #20]
    4de8:	e5871010 	str	r1, [r7, #16]
    4dec:	e581800c 	str	r8, [r1, #12]
    4df0:	e5818008 	str	r8, [r1, #8]
    4df4:	e581e004 	str	lr, [r1, #4]
    4df8:	e7812002 	str	r2, [r1, r2]
    4dfc:	e1a00006 	mov	r0, r6
    4e00:	eb000201 	bl	560c <__malloc_unlock>
    4e04:	eaffff95 	b	4c60 <_malloc_r+0x9c>
    4e08:	e35e0004 	cmp	lr, #4
    4e0c:	8a000087 	bhi	5030 <_malloc_r+0x46c>
    4e10:	e1a0e325 	lsr	lr, r5, #6
    4e14:	e28ee038 	add	lr, lr, #56	; 0x38
    4e18:	e1a0108e 	lsl	r1, lr, #1
    4e1c:	eaffff97 	b	4c80 <_malloc_r+0xbc>
    4e20:	e0842002 	add	r2, r4, r2
    4e24:	e5923004 	ldr	r3, [r2, #4]
    4e28:	e3833001 	orr	r3, r3, #1
    4e2c:	e5823004 	str	r3, [r2, #4]
    4e30:	e1a00006 	mov	r0, r6
    4e34:	eb0001f4 	bl	560c <__malloc_unlock>
    4e38:	e2844008 	add	r4, r4, #8
    4e3c:	eaffff87 	b	4c60 <_malloc_r+0x9c>
    4e40:	e5974008 	ldr	r4, [r7, #8]
    4e44:	e594a004 	ldr	r10, [r4, #4]
    4e48:	e3caa003 	bic	r10, r10, #3
    4e4c:	e155000a 	cmp	r5, r10
    4e50:	8a000002 	bhi	4e60 <_malloc_r+0x29c>
    4e54:	e065300a 	rsb	r3, r5, r10
    4e58:	e353000f 	cmp	r3, #15
    4e5c:	ca00005d 	bgt	4fd8 <_malloc_r+0x414>
    4e60:	e59f9470 	ldr	r9, [pc, #1136]	; 52d8 <_malloc_r+0x714>
    4e64:	e5973408 	ldr	r3, [r7, #1032]	; 0x408
    4e68:	e599b000 	ldr	r11, [r9]
    4e6c:	e3730001 	cmn	r3, #1
    4e70:	e085b00b 	add	r11, r5, r11
    4e74:	128bba01 	addne	r11, r11, #4096	; 0x1000
    4e78:	128bb00f 	addne	r11, r11, #15
    4e7c:	13cbbeff 	bicne	r11, r11, #4080	; 0xff0
    4e80:	028bb010 	addeq	r11, r11, #16
    4e84:	13cbb00f 	bicne	r11, r11, #15
    4e88:	e084200a 	add	r2, r4, r10
    4e8c:	e1a00006 	mov	r0, r6
    4e90:	e1a0100b 	mov	r1, r11
    4e94:	e58d2004 	str	r2, [sp, #4]
    4e98:	eb00053f 	bl	639c <_sbrk_r>
    4e9c:	e3700001 	cmn	r0, #1
    4ea0:	e1a08000 	mov	r8, r0
    4ea4:	e59d2004 	ldr	r2, [sp, #4]
    4ea8:	0a0000e2 	beq	5238 <_malloc_r+0x674>
    4eac:	e1520000 	cmp	r2, r0
    4eb0:	8a0000bf 	bhi	51b4 <_malloc_r+0x5f0>
    4eb4:	e5993004 	ldr	r3, [r9, #4]
    4eb8:	e1520008 	cmp	r2, r8
    4ebc:	e08b3003 	add	r3, r11, r3
    4ec0:	e5893004 	str	r3, [r9, #4]
    4ec4:	0a0000df 	beq	5248 <_malloc_r+0x684>
    4ec8:	e5971408 	ldr	r1, [r7, #1032]	; 0x408
    4ecc:	e3710001 	cmn	r1, #1
    4ed0:	10622008 	rsbne	r2, r2, r8
    4ed4:	059f33f8 	ldreq	r3, [pc, #1016]	; 52d4 <_malloc_r+0x710>
    4ed8:	10833002 	addne	r3, r3, r2
    4edc:	05838408 	streq	r8, [r3, #1032]	; 0x408
    4ee0:	15893004 	strne	r3, [r9, #4]
    4ee4:	e2183007 	ands	r3, r8, #7
    4ee8:	12632008 	rsbne	r2, r3, #8
    4eec:	10888002 	addne	r8, r8, r2
    4ef0:	12633a01 	rsbne	r3, r3, #4096	; 0x1000
    4ef4:	12832008 	addne	r2, r3, #8
    4ef8:	e088300b 	add	r3, r8, r11
    4efc:	03a02a01 	moveq	r2, #4096	; 0x1000
    4f00:	e1a03a03 	lsl	r3, r3, #20
    4f04:	e042ba23 	sub	r11, r2, r3, lsr #20
    4f08:	e1a0100b 	mov	r1, r11
    4f0c:	e1a00006 	mov	r0, r6
    4f10:	eb000521 	bl	639c <_sbrk_r>
    4f14:	e3700001 	cmn	r0, #1
    4f18:	10682000 	rsbne	r2, r8, r0
    4f1c:	e5993004 	ldr	r3, [r9, #4]
    4f20:	108b2002 	addne	r2, r11, r2
    4f24:	03a0b000 	moveq	r11, #0
    4f28:	13822001 	orrne	r2, r2, #1
    4f2c:	03a02001 	moveq	r2, #1
    4f30:	e08b3003 	add	r3, r11, r3
    4f34:	e1540007 	cmp	r4, r7
    4f38:	e5893004 	str	r3, [r9, #4]
    4f3c:	e5878008 	str	r8, [r7, #8]
    4f40:	e5882004 	str	r2, [r8, #4]
    4f44:	0a00000d 	beq	4f80 <_malloc_r+0x3bc>
    4f48:	e35a000f 	cmp	r10, #15
    4f4c:	9a0000ac 	bls	5204 <_malloc_r+0x640>
    4f50:	e594c004 	ldr	r12, [r4, #4]
    4f54:	e24a200c 	sub	r2, r10, #12
    4f58:	e3c22007 	bic	r2, r2, #7
    4f5c:	e20cc001 	and	r12, r12, #1
    4f60:	e0841002 	add	r1, r4, r2
    4f64:	e3a00005 	mov	r0, #5
    4f68:	e182c00c 	orr	r12, r2, r12
    4f6c:	e352000f 	cmp	r2, #15
    4f70:	e584c004 	str	r12, [r4, #4]
    4f74:	e5810004 	str	r0, [r1, #4]
    4f78:	e5810008 	str	r0, [r1, #8]
    4f7c:	8a0000b8 	bhi	5264 <_malloc_r+0x6a0>
    4f80:	e599202c 	ldr	r2, [r9, #44]	; 0x2c
    4f84:	e1530002 	cmp	r3, r2
    4f88:	859f2348 	ldrhi	r2, [pc, #840]	; 52d8 <_malloc_r+0x714>
    4f8c:	8582302c 	strhi	r3, [r2, #44]	; 0x2c
    4f90:	e5992030 	ldr	r2, [r9, #48]	; 0x30
    4f94:	e5974008 	ldr	r4, [r7, #8]
    4f98:	e1530002 	cmp	r3, r2
    4f9c:	95943004 	ldrls	r3, [r4, #4]
    4fa0:	85942004 	ldrhi	r2, [r4, #4]
    4fa4:	859f132c 	ldrhi	r1, [pc, #812]	; 52d8 <_malloc_r+0x714>
    4fa8:	93c33003 	bicls	r3, r3, #3
    4fac:	85813030 	strhi	r3, [r1, #48]	; 0x30
    4fb0:	83c23003 	bichi	r3, r2, #3
    4fb4:	e1550003 	cmp	r5, r3
    4fb8:	e0653003 	rsb	r3, r5, r3
    4fbc:	8a000001 	bhi	4fc8 <_malloc_r+0x404>
    4fc0:	e353000f 	cmp	r3, #15
    4fc4:	ca000003 	bgt	4fd8 <_malloc_r+0x414>
    4fc8:	e1a00006 	mov	r0, r6
    4fcc:	eb00018e 	bl	560c <__malloc_unlock>
    4fd0:	e3a04000 	mov	r4, #0
    4fd4:	eaffff21 	b	4c60 <_malloc_r+0x9c>
    4fd8:	e0842005 	add	r2, r4, r5
    4fdc:	e3833001 	orr	r3, r3, #1
    4fe0:	e3855001 	orr	r5, r5, #1
    4fe4:	e5845004 	str	r5, [r4, #4]
    4fe8:	e1a00006 	mov	r0, r6
    4fec:	e5823004 	str	r3, [r2, #4]
    4ff0:	e5872008 	str	r2, [r7, #8]
    4ff4:	e2844008 	add	r4, r4, #8
    4ff8:	eb000183 	bl	560c <__malloc_unlock>
    4ffc:	eaffff17 	b	4c60 <_malloc_r+0x9c>
    5000:	e0842002 	add	r2, r4, r2
    5004:	e5920004 	ldr	r0, [r2, #4]
    5008:	e2841008 	add	r1, r4, #8
    500c:	e891000a 	ldm	r1, {r1, r3}
    5010:	e3800001 	orr	r0, r0, #1
    5014:	e5820004 	str	r0, [r2, #4]
    5018:	e581300c 	str	r3, [r1, #12]
    501c:	e5831008 	str	r1, [r3, #8]
    5020:	e1a00006 	mov	r0, r6
    5024:	eb000178 	bl	560c <__malloc_unlock>
    5028:	e2844008 	add	r4, r4, #8
    502c:	eaffff0b 	b	4c60 <_malloc_r+0x9c>
    5030:	e35e0014 	cmp	lr, #20
    5034:	928ee05b 	addls	lr, lr, #91	; 0x5b
    5038:	91a0108e 	lslls	r1, lr, #1
    503c:	9affff0f 	bls	4c80 <_malloc_r+0xbc>
    5040:	e35e0054 	cmp	lr, #84	; 0x54
    5044:	8a000061 	bhi	51d0 <_malloc_r+0x60c>
    5048:	e1a0e625 	lsr	lr, r5, #12
    504c:	e28ee06e 	add	lr, lr, #110	; 0x6e
    5050:	e1a0108e 	lsl	r1, lr, #1
    5054:	eaffff09 	b	4c80 <_malloc_r+0xbc>
    5058:	e1a034a2 	lsr	r3, r2, #9
    505c:	e3530004 	cmp	r3, #4
    5060:	9a00004f 	bls	51a4 <_malloc_r+0x5e0>
    5064:	e3530014 	cmp	r3, #20
    5068:	9283a05b 	addls	r10, r3, #91	; 0x5b
    506c:	91a0008a 	lslls	r0, r10, #1
    5070:	9a000004 	bls	5088 <_malloc_r+0x4c4>
    5074:	e3530054 	cmp	r3, #84	; 0x54
    5078:	8a00007f 	bhi	527c <_malloc_r+0x6b8>
    507c:	e1a0a622 	lsr	r10, r2, #12
    5080:	e28aa06e 	add	r10, r10, #110	; 0x6e
    5084:	e1a0008a 	lsl	r0, r10, #1
    5088:	e0870100 	add	r0, r7, r0, lsl #2
    508c:	e5903008 	ldr	r3, [r0, #8]
    5090:	e1530000 	cmp	r3, r0
    5094:	e59fc238 	ldr	r12, [pc, #568]	; 52d4 <_malloc_r+0x710>
    5098:	0a000052 	beq	51e8 <_malloc_r+0x624>
    509c:	e5931004 	ldr	r1, [r3, #4]
    50a0:	e3c11003 	bic	r1, r1, #3
    50a4:	e1520001 	cmp	r2, r1
    50a8:	2a000002 	bcs	50b8 <_malloc_r+0x4f4>
    50ac:	e5933008 	ldr	r3, [r3, #8]
    50b0:	e1500003 	cmp	r0, r3
    50b4:	1afffff8 	bne	509c <_malloc_r+0x4d8>
    50b8:	e593200c 	ldr	r2, [r3, #12]
    50bc:	e5971004 	ldr	r1, [r7, #4]
    50c0:	e584200c 	str	r2, [r4, #12]
    50c4:	e5843008 	str	r3, [r4, #8]
    50c8:	e583400c 	str	r4, [r3, #12]
    50cc:	e5824008 	str	r4, [r2, #8]
    50d0:	eaffff19 	b	4d3c <_malloc_r+0x178>
    50d4:	e0842005 	add	r2, r4, r5
    50d8:	e3810001 	orr	r0, r1, #1
    50dc:	e3855001 	orr	r5, r5, #1
    50e0:	e5845004 	str	r5, [r4, #4]
    50e4:	e5832014 	str	r2, [r3, #20]
    50e8:	e5832010 	str	r2, [r3, #16]
    50ec:	e582800c 	str	r8, [r2, #12]
    50f0:	e9820101 	stmib	r2, {r0, r8}
    50f4:	e7821001 	str	r1, [r2, r1]
    50f8:	e1a00006 	mov	r0, r6
    50fc:	eb000142 	bl	560c <__malloc_unlock>
    5100:	e2844008 	add	r4, r4, #8
    5104:	eafffed5 	b	4c60 <_malloc_r+0x9c>
    5108:	e2844001 	add	r4, r4, #1
    510c:	e3140003 	tst	r4, #3
    5110:	e28cc008 	add	r12, r12, #8
    5114:	1affff1b 	bne	4d88 <_malloc_r+0x1c4>
    5118:	e31e0003 	tst	lr, #3
    511c:	e24a3008 	sub	r3, r10, #8
    5120:	0a000062 	beq	52b0 <_malloc_r+0x6ec>
    5124:	e59aa000 	ldr	r10, [r10]
    5128:	e15a0003 	cmp	r10, r3
    512c:	e24ee001 	sub	lr, lr, #1
    5130:	0afffff8 	beq	5118 <_malloc_r+0x554>
    5134:	e5973004 	ldr	r3, [r7, #4]
    5138:	e1a00080 	lsl	r0, r0, #1
    513c:	e1500003 	cmp	r0, r3
    5140:	8affff3e 	bhi	4e40 <_malloc_r+0x27c>
    5144:	e3500000 	cmp	r0, #0
    5148:	0affff3c 	beq	4e40 <_malloc_r+0x27c>
    514c:	e1130000 	tst	r3, r0
    5150:	0a00005a 	beq	52c0 <_malloc_r+0x6fc>
    5154:	e1a0e004 	mov	lr, r4
    5158:	eaffff07 	b	4d7c <_malloc_r+0x1b8>
    515c:	e2843008 	add	r3, r4, #8
    5160:	e5944014 	ldr	r4, [r4, #20]
    5164:	e1530004 	cmp	r3, r4
    5168:	028ee002 	addeq	lr, lr, #2
    516c:	0afffed5 	beq	4cc8 <_malloc_r+0x104>
    5170:	eafffead 	b	4c2c <_malloc_r+0x68>
    5174:	e0831001 	add	r1, r3, r1
    5178:	e5910004 	ldr	r0, [r1, #4]
    517c:	e1a04003 	mov	r4, r3
    5180:	e5b42008 	ldr	r2, [r4, #8]!
    5184:	e593300c 	ldr	r3, [r3, #12]
    5188:	e3800001 	orr	r0, r0, #1
    518c:	e5810004 	str	r0, [r1, #4]
    5190:	e582300c 	str	r3, [r2, #12]
    5194:	e5832008 	str	r2, [r3, #8]
    5198:	e1a00006 	mov	r0, r6
    519c:	eb00011a 	bl	560c <__malloc_unlock>
    51a0:	eafffeae 	b	4c60 <_malloc_r+0x9c>
    51a4:	e1a0a322 	lsr	r10, r2, #6
    51a8:	e28aa038 	add	r10, r10, #56	; 0x38
    51ac:	e1a0008a 	lsl	r0, r10, #1
    51b0:	eaffffb4 	b	5088 <_malloc_r+0x4c4>
    51b4:	e1540007 	cmp	r4, r7
    51b8:	0affff3d 	beq	4eb4 <_malloc_r+0x2f0>
    51bc:	e59f3110 	ldr	r3, [pc, #272]	; 52d4 <_malloc_r+0x710>
    51c0:	e5934008 	ldr	r4, [r3, #8]
    51c4:	e5943004 	ldr	r3, [r4, #4]
    51c8:	e3c33003 	bic	r3, r3, #3
    51cc:	eaffff78 	b	4fb4 <_malloc_r+0x3f0>
    51d0:	e35e0f55 	cmp	lr, #340	; 0x154
    51d4:	8a00000f 	bhi	5218 <_malloc_r+0x654>
    51d8:	e1a0e7a5 	lsr	lr, r5, #15
    51dc:	e28ee077 	add	lr, lr, #119	; 0x77
    51e0:	e1a0108e 	lsl	r1, lr, #1
    51e4:	eafffea5 	b	4c80 <_malloc_r+0xbc>
    51e8:	e59c2004 	ldr	r2, [r12, #4]
    51ec:	e1a0a14a 	asr	r10, r10, #2
    51f0:	e3a01001 	mov	r1, #1
    51f4:	e1821a11 	orr	r1, r2, r1, lsl r10
    51f8:	e1a02003 	mov	r2, r3
    51fc:	e58c1004 	str	r1, [r12, #4]
    5200:	eaffffae 	b	50c0 <_malloc_r+0x4fc>
    5204:	e3a03001 	mov	r3, #1
    5208:	e5883004 	str	r3, [r8, #4]
    520c:	e1a04008 	mov	r4, r8
    5210:	e3a03000 	mov	r3, #0
    5214:	eaffff66 	b	4fb4 <_malloc_r+0x3f0>
    5218:	e59f30bc 	ldr	r3, [pc, #188]	; 52dc <_malloc_r+0x718>
    521c:	e15e0003 	cmp	lr, r3
    5220:	91a0e925 	lsrls	lr, r5, #18
    5224:	928ee07c 	addls	lr, lr, #124	; 0x7c
    5228:	91a0108e 	lslls	r1, lr, #1
    522c:	83a010fc 	movhi	r1, #252	; 0xfc
    5230:	83a0e07e 	movhi	lr, #126	; 0x7e
    5234:	eafffe91 	b	4c80 <_malloc_r+0xbc>
    5238:	e5974008 	ldr	r4, [r7, #8]
    523c:	e5943004 	ldr	r3, [r4, #4]
    5240:	e3c33003 	bic	r3, r3, #3
    5244:	eaffff5a 	b	4fb4 <_malloc_r+0x3f0>
    5248:	e1b01a02 	lsls	r1, r2, #20
    524c:	1affff1d 	bne	4ec8 <_malloc_r+0x304>
    5250:	e5972008 	ldr	r2, [r7, #8]
    5254:	e08b100a 	add	r1, r11, r10
    5258:	e3811001 	orr	r1, r1, #1
    525c:	e5821004 	str	r1, [r2, #4]
    5260:	eaffff46 	b	4f80 <_malloc_r+0x3bc>
    5264:	e1a00006 	mov	r0, r6
    5268:	e2841008 	add	r1, r4, #8
    526c:	eb0009eb 	bl	7a20 <_free_r>
    5270:	e59f3060 	ldr	r3, [pc, #96]	; 52d8 <_malloc_r+0x714>
    5274:	e5933004 	ldr	r3, [r3, #4]
    5278:	eaffff40 	b	4f80 <_malloc_r+0x3bc>
    527c:	e3530f55 	cmp	r3, #340	; 0x154
    5280:	91a0a7a2 	lsrls	r10, r2, #15
    5284:	928aa077 	addls	r10, r10, #119	; 0x77
    5288:	91a0008a 	lslls	r0, r10, #1
    528c:	9affff7d 	bls	5088 <_malloc_r+0x4c4>
    5290:	e59f1044 	ldr	r1, [pc, #68]	; 52dc <_malloc_r+0x718>
    5294:	e1530001 	cmp	r3, r1
    5298:	91a0a922 	lsrls	r10, r2, #18
    529c:	928aa07c 	addls	r10, r10, #124	; 0x7c
    52a0:	91a0008a 	lslls	r0, r10, #1
    52a4:	83a000fc 	movhi	r0, #252	; 0xfc
    52a8:	83a0a07e 	movhi	r10, #126	; 0x7e
    52ac:	eaffff75 	b	5088 <_malloc_r+0x4c4>
    52b0:	e5973004 	ldr	r3, [r7, #4]
    52b4:	e1c33000 	bic	r3, r3, r0
    52b8:	e5873004 	str	r3, [r7, #4]
    52bc:	eaffff9d 	b	5138 <_malloc_r+0x574>
    52c0:	e1a00080 	lsl	r0, r0, #1
    52c4:	e1130000 	tst	r3, r0
    52c8:	e2844004 	add	r4, r4, #4
    52cc:	1affffa0 	bne	5154 <_malloc_r+0x590>
    52d0:	eafffffa 	b	52c0 <_malloc_r+0x6fc>
    52d4:	0000aa9c 	.word	0x0000aa9c
    52d8:	0000aefc 	.word	0x0000aefc
    52dc:	00000554 	.word	0x00000554

000052e0 <memchr>:
    52e0:	e3100003 	tst	r0, #3
    52e4:	e92d0070 	push	{r4, r5, r6}
    52e8:	e20110ff 	and	r1, r1, #255	; 0xff
    52ec:	0a00003c 	beq	53e4 <memchr+0x104>
    52f0:	e3520000 	cmp	r2, #0
    52f4:	e242c001 	sub	r12, r2, #1
    52f8:	0a00003b 	beq	53ec <memchr+0x10c>
    52fc:	e5d03000 	ldrb	r3, [r0]
    5300:	e1530001 	cmp	r3, r1
    5304:	0a00001f 	beq	5388 <memchr+0xa8>
    5308:	e2803001 	add	r3, r0, #1
    530c:	ea000006 	b	532c <memchr+0x4c>
    5310:	e35c0000 	cmp	r12, #0
    5314:	0a00001d 	beq	5390 <memchr+0xb0>
    5318:	e5d02000 	ldrb	r2, [r0]
    531c:	e1520001 	cmp	r2, r1
    5320:	e2833001 	add	r3, r3, #1
    5324:	e24cc001 	sub	r12, r12, #1
    5328:	0a000016 	beq	5388 <memchr+0xa8>
    532c:	e3130003 	tst	r3, #3
    5330:	e1a00003 	mov	r0, r3
    5334:	1afffff5 	bne	5310 <memchr+0x30>
    5338:	e35c0003 	cmp	r12, #3
    533c:	8a000015 	bhi	5398 <memchr+0xb8>
    5340:	e35c0000 	cmp	r12, #0
    5344:	e24c4001 	sub	r4, r12, #1
    5348:	0a000010 	beq	5390 <memchr+0xb0>
    534c:	e5d03000 	ldrb	r3, [r0]
    5350:	e1530001 	cmp	r3, r1
    5354:	0a00000b 	beq	5388 <memchr+0xa8>
    5358:	e2802001 	add	r2, r0, #1
    535c:	e3a03000 	mov	r3, #0
    5360:	ea000004 	b	5378 <memchr+0x98>
    5364:	e5d0c000 	ldrb	r12, [r0]
    5368:	e15c0001 	cmp	r12, r1
    536c:	e2822001 	add	r2, r2, #1
    5370:	e2833001 	add	r3, r3, #1
    5374:	0a000003 	beq	5388 <memchr+0xa8>
    5378:	e1540003 	cmp	r4, r3
    537c:	e1a00002 	mov	r0, r2
    5380:	1afffff7 	bne	5364 <memchr+0x84>
    5384:	e3a00000 	mov	r0, #0
    5388:	e8bd0070 	pop	{r4, r5, r6}
    538c:	e12fff1e 	bx	lr
    5390:	e1a0000c 	mov	r0, r12
    5394:	eafffffb 	b	5388 <memchr+0xa8>
    5398:	e1816401 	orr	r6, r1, r1, lsl #8
    539c:	e1866806 	orr	r6, r6, r6, lsl #16
    53a0:	e5903000 	ldr	r3, [r0]
    53a4:	e59f4048 	ldr	r4, [pc, #72]	; 53f4 <memchr+0x114>
    53a8:	e0263003 	eor	r3, r6, r3
    53ac:	e0834004 	add	r4, r3, r4
    53b0:	e59f2040 	ldr	r2, [pc, #64]	; 53f8 <memchr+0x118>
    53b4:	e1c44003 	bic	r4, r4, r3
    53b8:	e0042002 	and	r2, r4, r2
    53bc:	e3520000 	cmp	r2, #0
    53c0:	e1a05000 	mov	r5, r0
    53c4:	e2800004 	add	r0, r0, #4
    53c8:	1a000003 	bne	53dc <memchr+0xfc>
    53cc:	e24cc004 	sub	r12, r12, #4
    53d0:	e35c0003 	cmp	r12, #3
    53d4:	8afffff1 	bhi	53a0 <memchr+0xc0>
    53d8:	eaffffd8 	b	5340 <memchr+0x60>
    53dc:	e1a00005 	mov	r0, r5
    53e0:	eaffffd6 	b	5340 <memchr+0x60>
    53e4:	e1a0c002 	mov	r12, r2
    53e8:	eaffffd2 	b	5338 <memchr+0x58>
    53ec:	e1a00002 	mov	r0, r2
    53f0:	eaffffe4 	b	5388 <memchr+0xa8>
    53f4:	fefefeff 	.word	0xfefefeff
    53f8:	80808080 	.word	0x80808080

000053fc <memcpy>:
    53fc:	e3520003 	cmp	r2, #3
    5400:	e92d01f0 	push	{r4, r5, r6, r7, r8}
    5404:	8a000009 	bhi	5430 <memcpy+0x34>
    5408:	e3520000 	cmp	r2, #0
    540c:	0a000005 	beq	5428 <memcpy+0x2c>
    5410:	e3a03000 	mov	r3, #0
    5414:	e7d1c003 	ldrb	r12, [r1, r3]
    5418:	e7c0c003 	strb	r12, [r0, r3]
    541c:	e2833001 	add	r3, r3, #1
    5420:	e1530002 	cmp	r3, r2
    5424:	1afffffa 	bne	5414 <memcpy+0x18>
    5428:	e8bd01f0 	pop	{r4, r5, r6, r7, r8}
    542c:	e12fff1e 	bx	lr
    5430:	e3100003 	tst	r0, #3
    5434:	e0802002 	add	r2, r0, r2
    5438:	0a00000b 	beq	546c <memcpy+0x70>
    543c:	e280c001 	add	r12, r0, #1
    5440:	e2814001 	add	r4, r1, #1
    5444:	e20c3003 	and	r3, r12, #3
    5448:	e5545001 	ldrb	r5, [r4, #-1]
    544c:	e3530000 	cmp	r3, #0
    5450:	e1a01004 	mov	r1, r4
    5454:	e1a0300c 	mov	r3, r12
    5458:	e54c5001 	strb	r5, [r12, #-1]
    545c:	e2844001 	add	r4, r4, #1
    5460:	e28cc001 	add	r12, r12, #1
    5464:	1afffff6 	bne	5444 <memcpy+0x48>
    5468:	ea000000 	b	5470 <memcpy+0x74>
    546c:	e1a03000 	mov	r3, r0
    5470:	e211c003 	ands	r12, r1, #3
    5474:	1a00004f 	bne	55b8 <memcpy+0x1bc>
    5478:	e063c002 	rsb	r12, r3, r2
    547c:	e35c003f 	cmp	r12, #63	; 0x3f
    5480:	da000024 	ble	5518 <memcpy+0x11c>
    5484:	e591c000 	ldr	r12, [r1]
    5488:	e583c000 	str	r12, [r3]
    548c:	e591c004 	ldr	r12, [r1, #4]
    5490:	e583c004 	str	r12, [r3, #4]
    5494:	e591c008 	ldr	r12, [r1, #8]
    5498:	e583c008 	str	r12, [r3, #8]
    549c:	e591c00c 	ldr	r12, [r1, #12]
    54a0:	e583c00c 	str	r12, [r3, #12]
    54a4:	e591c010 	ldr	r12, [r1, #16]
    54a8:	e583c010 	str	r12, [r3, #16]
    54ac:	e591c014 	ldr	r12, [r1, #20]
    54b0:	e583c014 	str	r12, [r3, #20]
    54b4:	e591c018 	ldr	r12, [r1, #24]
    54b8:	e583c018 	str	r12, [r3, #24]
    54bc:	e591c01c 	ldr	r12, [r1, #28]
    54c0:	e583c01c 	str	r12, [r3, #28]
    54c4:	e591c020 	ldr	r12, [r1, #32]
    54c8:	e583c020 	str	r12, [r3, #32]
    54cc:	e591c024 	ldr	r12, [r1, #36]	; 0x24
    54d0:	e583c024 	str	r12, [r3, #36]	; 0x24
    54d4:	e591c028 	ldr	r12, [r1, #40]	; 0x28
    54d8:	e583c028 	str	r12, [r3, #40]	; 0x28
    54dc:	e591c02c 	ldr	r12, [r1, #44]	; 0x2c
    54e0:	e583c02c 	str	r12, [r3, #44]	; 0x2c
    54e4:	e591c030 	ldr	r12, [r1, #48]	; 0x30
    54e8:	e583c030 	str	r12, [r3, #48]	; 0x30
    54ec:	e591c034 	ldr	r12, [r1, #52]	; 0x34
    54f0:	e583c034 	str	r12, [r3, #52]	; 0x34
    54f4:	e591c038 	ldr	r12, [r1, #56]	; 0x38
    54f8:	e583c038 	str	r12, [r3, #56]	; 0x38
    54fc:	e591c03c 	ldr	r12, [r1, #60]	; 0x3c
    5500:	e2833040 	add	r3, r3, #64	; 0x40
    5504:	e503c004 	str	r12, [r3, #-4]
    5508:	e063c002 	rsb	r12, r3, r2
    550c:	e35c003f 	cmp	r12, #63	; 0x3f
    5510:	e2811040 	add	r1, r1, #64	; 0x40
    5514:	caffffda 	bgt	5484 <memcpy+0x88>
    5518:	e35c000f 	cmp	r12, #15
    551c:	da00000c 	ble	5554 <memcpy+0x158>
    5520:	e591c000 	ldr	r12, [r1]
    5524:	e583c000 	str	r12, [r3]
    5528:	e591c004 	ldr	r12, [r1, #4]
    552c:	e583c004 	str	r12, [r3, #4]
    5530:	e591c008 	ldr	r12, [r1, #8]
    5534:	e583c008 	str	r12, [r3, #8]
    5538:	e591c00c 	ldr	r12, [r1, #12]
    553c:	e2833010 	add	r3, r3, #16
    5540:	e503c004 	str	r12, [r3, #-4]
    5544:	e063c002 	rsb	r12, r3, r2
    5548:	e35c000f 	cmp	r12, #15
    554c:	e2811010 	add	r1, r1, #16
    5550:	cafffff2 	bgt	5520 <memcpy+0x124>
    5554:	e35c0003 	cmp	r12, #3
    5558:	da00000a 	ble	5588 <memcpy+0x18c>
    555c:	e283c004 	add	r12, r3, #4
    5560:	e2814004 	add	r4, r1, #4
    5564:	e06c3002 	rsb	r3, r12, r2
    5568:	e5145004 	ldr	r5, [r4, #-4]
    556c:	e3530003 	cmp	r3, #3
    5570:	e1a01004 	mov	r1, r4
    5574:	e1a0300c 	mov	r3, r12
    5578:	e50c5004 	str	r5, [r12, #-4]
    557c:	e2844004 	add	r4, r4, #4
    5580:	e28cc004 	add	r12, r12, #4
    5584:	cafffff6 	bgt	5564 <memcpy+0x168>
    5588:	e1520003 	cmp	r2, r3
    558c:	82833001 	addhi	r3, r3, #1
    5590:	82811001 	addhi	r1, r1, #1
    5594:	82822001 	addhi	r2, r2, #1
    5598:	9affffa2 	bls	5428 <memcpy+0x2c>
    559c:	e551c001 	ldrb	r12, [r1, #-1]
    55a0:	e2833001 	add	r3, r3, #1
    55a4:	e1530002 	cmp	r3, r2
    55a8:	e543c002 	strb	r12, [r3, #-2]
    55ac:	e2811001 	add	r1, r1, #1
    55b0:	1afffff9 	bne	559c <memcpy+0x1a0>
    55b4:	eaffff9b 	b	5428 <memcpy+0x2c>
    55b8:	e0635002 	rsb	r5, r3, r2
    55bc:	e06c4001 	rsb	r4, r12, r1
    55c0:	e3550003 	cmp	r5, #3
    55c4:	e5945000 	ldr	r5, [r4]
    55c8:	daffffee 	ble	5588 <memcpy+0x18c>
    55cc:	e26c6004 	rsb	r6, r12, #4
    55d0:	e1a0718c 	lsl	r7, r12, #3
    55d4:	e1a06186 	lsl	r6, r6, #3
    55d8:	e283c004 	add	r12, r3, #4
    55dc:	e1a08735 	lsr	r8, r5, r7
    55e0:	e5b45004 	ldr	r5, [r4, #4]!
    55e4:	e1888615 	orr	r8, r8, r5, lsl r6
    55e8:	e06c3002 	rsb	r3, r12, r2
    55ec:	e3530003 	cmp	r3, #3
    55f0:	e50c8004 	str	r8, [r12, #-4]
    55f4:	e1a0300c 	mov	r3, r12
    55f8:	e2811004 	add	r1, r1, #4
    55fc:	e28cc004 	add	r12, r12, #4
    5600:	cafffff5 	bgt	55dc <memcpy+0x1e0>
    5604:	eaffffdf 	b	5588 <memcpy+0x18c>

00005608 <__malloc_lock>:
    5608:	e12fff1e 	bx	lr

0000560c <__malloc_unlock>:
    560c:	e12fff1e 	bx	lr

00005610 <_Balloc>:
    5610:	e590304c 	ldr	r3, [r0, #76]	; 0x4c
    5614:	e3530000 	cmp	r3, #0
    5618:	e92d4070 	push	{r4, r5, r6, lr}
    561c:	e1a05000 	mov	r5, r0
    5620:	e1a04001 	mov	r4, r1
    5624:	0a000009 	beq	5650 <_Balloc+0x40>
    5628:	e7930104 	ldr	r0, [r3, r4, lsl #2]
    562c:	e3500000 	cmp	r0, #0
    5630:	0a00000f 	beq	5674 <_Balloc+0x64>
    5634:	e5902000 	ldr	r2, [r0]
    5638:	e7832104 	str	r2, [r3, r4, lsl #2]
    563c:	e3a03000 	mov	r3, #0
    5640:	e5803010 	str	r3, [r0, #16]
    5644:	e580300c 	str	r3, [r0, #12]
    5648:	e8bd4070 	pop	{r4, r5, r6, lr}
    564c:	e12fff1e 	bx	lr
    5650:	e3a01004 	mov	r1, #4
    5654:	e3a02021 	mov	r2, #33	; 0x21
    5658:	eb00088c 	bl	7890 <_calloc_r>
    565c:	e3500000 	cmp	r0, #0
    5660:	e1a03000 	mov	r3, r0
    5664:	e585004c 	str	r0, [r5, #76]	; 0x4c
    5668:	1affffee 	bne	5628 <_Balloc+0x18>
    566c:	e3a00000 	mov	r0, #0
    5670:	eafffff4 	b	5648 <_Balloc+0x38>
    5674:	e3a01001 	mov	r1, #1
    5678:	e1a06411 	lsl	r6, r1, r4
    567c:	e2862005 	add	r2, r6, #5
    5680:	e1a00005 	mov	r0, r5
    5684:	e1a02102 	lsl	r2, r2, #2
    5688:	eb000880 	bl	7890 <_calloc_r>
    568c:	e3500000 	cmp	r0, #0
    5690:	0afffff5 	beq	566c <_Balloc+0x5c>
    5694:	e9800050 	stmib	r0, {r4, r6}
    5698:	eaffffe7 	b	563c <_Balloc+0x2c>

0000569c <_Bfree>:
    569c:	e3510000 	cmp	r1, #0
    56a0:	1590304c 	ldrne	r3, [r0, #76]	; 0x4c
    56a4:	15912004 	ldrne	r2, [r1, #4]
    56a8:	17930102 	ldrne	r0, [r3, r2, lsl #2]
    56ac:	15810000 	strne	r0, [r1]
    56b0:	17831102 	strne	r1, [r3, r2, lsl #2]
    56b4:	e12fff1e 	bx	lr

000056b8 <__multadd>:
    56b8:	e92d45f0 	push	{r4, r5, r6, r7, r8, r10, lr}
    56bc:	e5917010 	ldr	r7, [r1, #16]
    56c0:	e24dd00c 	sub	sp, sp, #12
    56c4:	e1a08001 	mov	r8, r1
    56c8:	e1a0a000 	mov	r10, r0
    56cc:	e2814014 	add	r4, r1, #20
    56d0:	e3a0c000 	mov	r12, #0
    56d4:	e5946000 	ldr	r6, [r4]
    56d8:	e1a05806 	lsl	r5, r6, #16
    56dc:	e1a05825 	lsr	r5, r5, #16
    56e0:	e0253592 	mla	r5, r2, r5, r3
    56e4:	e1a03826 	lsr	r3, r6, #16
    56e8:	e0030392 	mul	r3, r2, r3
    56ec:	e1a01805 	lsl	r1, r5, #16
    56f0:	e0833825 	add	r3, r3, r5, lsr #16
    56f4:	e1a01821 	lsr	r1, r1, #16
    56f8:	e28cc001 	add	r12, r12, #1
    56fc:	e0811803 	add	r1, r1, r3, lsl #16
    5700:	e157000c 	cmp	r7, r12
    5704:	e1a03823 	lsr	r3, r3, #16
    5708:	e4841004 	str	r1, [r4], #4
    570c:	cafffff0 	bgt	56d4 <__multadd+0x1c>
    5710:	e3530000 	cmp	r3, #0
    5714:	0a000006 	beq	5734 <__multadd+0x7c>
    5718:	e5982008 	ldr	r2, [r8, #8]
    571c:	e1570002 	cmp	r7, r2
    5720:	aa000007 	bge	5744 <__multadd+0x8c>
    5724:	e0882107 	add	r2, r8, r7, lsl #2
    5728:	e2877001 	add	r7, r7, #1
    572c:	e5823014 	str	r3, [r2, #20]
    5730:	e5887010 	str	r7, [r8, #16]
    5734:	e1a00008 	mov	r0, r8
    5738:	e28dd00c 	add	sp, sp, #12
    573c:	e8bd45f0 	pop	{r4, r5, r6, r7, r8, r10, lr}
    5740:	e12fff1e 	bx	lr
    5744:	e5981004 	ldr	r1, [r8, #4]
    5748:	e1a0000a 	mov	r0, r10
    574c:	e2811001 	add	r1, r1, #1
    5750:	e58d3004 	str	r3, [sp, #4]
    5754:	ebffffad 	bl	5610 <_Balloc>
    5758:	e5982010 	ldr	r2, [r8, #16]
    575c:	e2822002 	add	r2, r2, #2
    5760:	e288100c 	add	r1, r8, #12
    5764:	e1a04000 	mov	r4, r0
    5768:	e1a02102 	lsl	r2, r2, #2
    576c:	e280000c 	add	r0, r0, #12
    5770:	ebffff21 	bl	53fc <memcpy>
    5774:	e5981004 	ldr	r1, [r8, #4]
    5778:	e59a204c 	ldr	r2, [r10, #76]	; 0x4c
    577c:	e7920101 	ldr	r0, [r2, r1, lsl #2]
    5780:	e59d3004 	ldr	r3, [sp, #4]
    5784:	e5880000 	str	r0, [r8]
    5788:	e7828101 	str	r8, [r2, r1, lsl #2]
    578c:	e1a08004 	mov	r8, r4
    5790:	eaffffe3 	b	5724 <__multadd+0x6c>

00005794 <__s2b>:
    5794:	e92d45f8 	push	{r3, r4, r5, r6, r7, r8, r10, lr}
    5798:	e283c008 	add	r12, r3, #8
    579c:	e1a07003 	mov	r7, r3
    57a0:	e59f30d8 	ldr	r3, [pc, #216]	; 5880 <__s2b+0xec>
    57a4:	e0c3e39c 	smull	lr, r3, r12, r3
    57a8:	e1a0cfcc 	asr	r12, r12, #31
    57ac:	e06c30c3 	rsb	r3, r12, r3, asr #1
